ccopy_reg
_reconstructor
p0
(csets
Set
p1
c__builtin__
object
p2
Ntp3
Rp4
((dp5
(cnumpy.core.multiarray
scalar
p6
(cnumpy
dtype
p7
(S'u1'
p8
I0
I1
tp9
Rp10
(I3
S'|'
p11
NNNI-1
I-1
I0
tp12
bS'\x00'
p13
tp14
Rp15
g6
(g10
S'\xb4'
p16
tp17
Rp18
g6
(g10
S'\x87'
p19
tp20
Rp21
tp22
I01
s(g6
(g10
g13
tp23
Rp24
g6
(g10
S'\xab'
p25
tp26
Rp27
g6
(g10
S'Z'
p28
tp29
Rp30
tp31
I01
s(g6
(g10
S'V'
p32
tp33
Rp34
g6
(g10
S'\x84'
p35
tp36
Rp37
g6
(g10
S'\x10'
p38
tp39
Rp40
tp41
I01
s(g6
(g10
S'U'
p42
tp43
Rp44
g6
(g10
S'o'
p45
tp46
Rp47
g6
(g10
S'3'
p48
tp49
Rp50
tp51
I01
s(g6
(g10
S'T'
p52
tp53
Rp54
g6
(g10
g28
tp55
Rp56
g6
(g10
g32
tp57
Rp58
tp59
I01
s(g6
(g10
g32
tp60
Rp61
g6
(g10
S'\x1e'
p62
tp63
Rp64
g6
(g10
S')'
p65
tp66
Rp67
tp68
I01
s(g6
(g10
g13
tp69
Rp70
g6
(g10
S'-'
p71
tp72
Rp73
g6
(g10
g42
tp74
Rp75
tp76
I01
s(g6
(g10
S'\x80'
p77
tp78
Rp79
g6
(g10
S'K'
p80
tp81
Rp82
g6
(g10
g52
tp83
Rp84
tp85
I01
s(g6
(g10
g52
tp86
Rp87
g6
(g10
S"'"
p88
tp89
Rp90
g6
(g10
S'\xb0'
p91
tp92
Rp93
tp94
I01
s(g6
(g10
S'~'
p95
tp96
Rp97
g6
(g10
S'6'
p98
tp99
Rp100
g6
(g10
S'\t'
p101
tp102
Rp103
tp104
I01
s(g6
(g10
S'\xa8'
p105
tp106
Rp107
g6
(g10
S'H'
p108
tp109
Rp110
g6
(g10
S'C'
p111
tp112
Rp113
tp114
I01
s(g6
(g10
S'j'
p115
tp116
Rp117
g6
(g10
S':'
p118
tp119
Rp120
g6
(g10
S'\x92'
p121
tp122
Rp123
tp124
I01
s(g6
(g10
g105
tp125
Rp126
g6
(g10
S'\x18'
p127
tp128
Rp129
g6
(g10
S'\x11'
p130
tp131
Rp132
tp133
I01
s(g6
(g10
g95
tp134
Rp135
g6
(g10
S'*'
p136
tp137
Rp138
g6
(g10
S'\x9a'
p139
tp140
Rp141
tp142
I01
s(g6
(g10
S'\xaa'
p143
tp144
Rp145
g6
(g10
S'?'
p146
tp147
Rp148
g6
(g10
S'R'
p149
tp150
Rp151
tp152
I01
s(g6
(g10
g13
tp153
Rp154
g6
(g10
S'\xa2'
p155
tp156
Rp157
g6
(g10
S'('
p158
tp159
Rp160
tp161
I01
s(g6
(g10
g52
tp162
Rp163
g6
(g10
g28
tp164
Rp165
g6
(g10
g65
tp166
Rp167
tp168
I01
s(g6
(g10
S'\x7f'
p169
tp170
Rp171
g6
(g10
S'{'
p172
tp173
Rp174
g6
(g10
S'O'
p175
tp176
Rp177
tp178
I01
s(g6
(g10
g136
tp179
Rp180
g6
(g10
S'x'
p181
tp182
Rp183
g6
(g10
S'\x8a'
p184
tp185
Rp186
tp187
I01
s(g6
(g10
S'\xa9'
p188
tp189
Rp190
g6
(g10
g80
tp191
Rp192
g6
(g10
S'\x89'
p193
tp194
Rp195
tp196
I01
s(g6
(g10
g105
tp197
Rp198
g6
(g10
g95
tp199
Rp200
g6
(g10
S'\\'
p201
tp202
Rp203
tp204
I01
s(g6
(g10
g42
tp205
Rp206
g6
(g10
g127
tp207
Rp208
g6
(g10
S'\x01'
p209
tp210
Rp211
tp212
I01
s(g6
(g10
g42
tp213
Rp214
g6
(g10
S'$'
p215
tp216
Rp217
g6
(g10
S'\xa6'
p218
tp219
Rp220
tp221
I01
s(g6
(g10
S'\xde'
p222
tp223
Rp224
g6
(g10
S'p'
p225
tp226
Rp227
g6
(g10
S'd'
p228
tp229
Rp230
tp231
I01
s(g6
(g10
S'+'
p232
tp233
Rp234
g6
(g10
g146
tp235
Rp236
g6
(g10
S'b'
p237
tp238
Rp239
tp240
I01
s(g6
(g10
g188
tp241
Rp242
g6
(g10
g95
tp243
Rp244
g6
(g10
S'\x98'
p245
tp246
Rp247
tp248
I01
s(g6
(g10
g232
tp249
Rp250
g6
(g10
g48
tp251
Rp252
g6
(g10
S'\x85'
p253
tp254
Rp255
tp256
I01
s(g6
(g10
g95
tp257
Rp258
g6
(g10
S'\xcc'
p259
tp260
Rp261
g6
(g10
S'\x8b'
p262
tp263
Rp264
tp265
I01
s(g6
(g10
S'\x02'
p266
tp267
Rp268
g6
(g10
S'\xc0'
p269
tp270
Rp271
g6
(g10
S'\xa0'
p272
tp273
Rp274
tp275
I01
s(g6
(g10
g105
tp276
Rp277
g6
(g10
g16
tp278
Rp279
g6
(g10
S'\xb1'
p280
tp281
Rp282
tp283
I01
s(g6
(g10
g95
tp284
Rp285
g6
(g10
g105
tp286
Rp287
g6
(g10
g98
tp288
Rp289
tp290
I01
s(g6
(g10
g52
tp291
Rp292
g6
(g10
S'\xb7'
p293
tp294
Rp295
g6
(g10
S'B'
p296
tp297
Rp298
tp299
I01
s(g6
(g10
g95
tp300
Rp301
g6
(g10
S'\xa5'
p302
tp303
Rp304
g6
(g10
S'"'
p305
tp306
Rp307
tp308
I01
s(g6
(g10
g52
tp309
Rp310
g6
(g10
S'\x03'
p311
tp312
Rp313
g6
(g10
S'\x8d'
p314
tp315
Rp316
tp317
I01
s(g6
(g10
g136
tp318
Rp319
g6
(g10
S'9'
p320
tp321
Rp322
g6
(g10
S'\xd0'
p323
tp324
Rp325
tp326
I01
s(g6
(g10
g105
tp327
Rp328
g6
(g10
g269
tp329
Rp330
g6
(g10
S'W'
p331
tp332
Rp333
tp334
I01
s(g6
(g10
g136
tp335
Rp336
g6
(g10
S'E'
p337
tp338
Rp339
g6
(g10
S'\x12'
p340
tp341
Rp342
tp343
I01
s(g6
(g10
g13
tp344
Rp345
g6
(g10
S'\x06'
p346
tp347
Rp348
g6
(g10
g42
tp349
Rp350
tp351
I01
s(g6
(g10
g95
tp352
Rp353
g6
(g10
g95
tp354
Rp355
g6
(g10
g262
tp356
Rp357
tp358
I01
s(g6
(g10
g232
tp359
Rp360
g6
(g10
g52
tp361
Rp362
g6
(g10
S'5'
p363
tp364
Rp365
tp366
I01
s(g6
(g10
g13
tp367
Rp368
g6
(g10
g320
tp369
Rp370
g6
(g10
g13
tp371
Rp372
tp373
I01
s(g6
(g10
g105
tp374
Rp375
g6
(g10
S'\xba'
p376
tp377
Rp378
g6
(g10
g266
tp379
Rp380
tp381
I01
s(g6
(g10
g105
tp382
Rp383
g6
(g10
S'!'
p384
tp385
Rp386
g6
(g10
S'\xd9'
p387
tp388
Rp389
tp390
I01
s(g6
(g10
g95
tp391
Rp392
g6
(g10
S'\xc6'
p393
tp394
Rp395
g6
(g10
S'\x04'
p396
tp397
Rp398
tp399
I01
s(g6
(g10
g95
tp400
Rp401
g6
(g10
g302
tp402
Rp403
g6
(g10
S'Y'
p404
tp405
Rp406
tp407
I01
s(g6
(g10
g95
tp408
Rp409
g6
(g10
S'\x1b'
p410
tp411
Rp412
g6
(g10
S'\xae'
p413
tp414
Rp415
tp416
I01
s(g6
(g10
g13
tp417
Rp418
g6
(g10
S'<'
p419
tp420
Rp421
g6
(g10
S'\n'
p422
tp423
Rp424
tp425
I01
s(g6
(g10
g266
tp426
Rp427
g6
(g10
g101
tp428
Rp429
g6
(g10
g302
tp430
Rp431
tp432
I01
s(g6
(g10
g52
tp433
Rp434
g6
(g10
g314
tp435
Rp436
g6
(g10
S'\x97'
p437
tp438
Rp439
tp440
I01
s(g6
(g10
g52
tp441
Rp442
g6
(g10
g136
tp443
Rp444
g6
(g10
S'['
p445
tp446
Rp447
tp448
I01
s(g6
(g10
g42
tp449
Rp450
g6
(g10
g105
tp451
Rp452
g6
(g10
S'`'
p453
tp454
Rp455
tp456
I01
s(g6
(g10
g105
tp457
Rp458
g6
(g10
g98
tp459
Rp460
g6
(g10
S'\x16'
p461
tp462
Rp463
tp464
I01
s(g6
(g10
g77
tp465
Rp466
g6
(g10
S']'
p467
tp468
Rp469
g6
(g10
S'\xb3'
p470
tp471
Rp472
tp473
I01
s(g6
(g10
g105
tp474
Rp475
g6
(g10
S'\xbd'
p476
tp477
Rp478
g6
(g10
g461
tp479
Rp480
tp481
I01
s(g6
(g10
g77
tp482
Rp483
g6
(g10
S'u'
p484
tp485
Rp486
g6
(g10
S'1'
p487
tp488
Rp489
tp490
I01
s(g6
(g10
g136
tp491
Rp492
g6
(g10
S'\x9c'
p493
tp494
Rp495
g6
(g10
S'\xad'
p496
tp497
Rp498
tp499
I01
s(g6
(g10
g95
tp500
Rp501
g6
(g10
S'\xc3'
p502
tp503
Rp504
g6
(g10
g88
tp505
Rp506
tp507
I01
s(g6
(g10
g136
tp508
Rp509
g6
(g10
g105
tp510
Rp511
g6
(g10
g253
tp512
Rp513
tp514
I01
s(g6
(g10
g13
tp515
Rp516
g6
(g10
S'f'
p517
tp518
Rp519
g6
(g10
g19
tp520
Rp521
tp522
I01
s(g6
(g10
g13
tp523
Rp524
g6
(g10
S'\x93'
p525
tp526
Rp527
g6
(g10
g302
tp528
Rp529
tp530
I01
s(g6
(g10
g13
tp531
Rp532
g6
(g10
S'N'
p533
tp534
Rp535
g6
(g10
S'7'
p536
tp537
Rp538
tp539
I01
s(g6
(g10
g95
tp540
Rp541
g6
(g10
g88
tp542
Rp543
g6
(g10
g52
tp544
Rp545
tp546
I01
s(g6
(g10
g13
tp547
Rp548
g6
(g10
g25
tp549
Rp550
g6
(g10
S'#'
p551
tp552
Rp553
tp554
I01
s(g6
(g10
g52
tp555
Rp556
g6
(g10
S'i'
p557
tp558
Rp559
g6
(g10
S'\xd8'
p560
tp561
Rp562
tp563
I01
s(g6
(g10
g105
tp564
Rp565
g6
(g10
g155
tp566
Rp567
g6
(g10
g149
tp568
Rp569
tp570
I01
s(g6
(g10
g95
tp571
Rp572
g6
(g10
S'\x90'
p573
tp574
Rp575
g6
(g10
g175
tp576
Rp577
tp578
I01
s(g6
(g10
g266
tp579
Rp580
g6
(g10
g184
tp581
Rp582
g6
(g10
g16
tp583
Rp584
tp585
I01
s(g6
(g10
g169
tp586
Rp587
g6
(g10
g155
tp588
Rp589
g6
(g10
g127
tp590
Rp591
tp592
I01
s(g6
(g10
g52
tp593
Rp594
g6
(g10
g340
tp595
Rp596
g6
(g10
g38
tp597
Rp598
tp599
I01
s(g6
(g10
g95
tp600
Rp601
g6
(g10
g45
tp602
Rp603
g6
(g10
g98
tp604
Rp605
tp606
I01
s(g6
(g10
g42
tp607
Rp608
g6
(g10
g557
tp609
Rp610
g6
(g10
S'L'
p611
tp612
Rp613
tp614
I01
s(g6
(g10
g52
tp615
Rp616
g6
(g10
g311
tp617
Rp618
g6
(g10
g445
tp619
Rp620
tp621
I01
s(g6
(g10
g105
tp622
Rp623
g6
(g10
S'\x0c'
p624
tp625
Rp626
g6
(g10
S'\xcf'
p627
tp628
Rp629
tp630
I01
s(g6
(g10
g52
tp631
Rp632
g6
(g10
g28
tp633
Rp634
g6
(g10
S'\xbf'
p635
tp636
Rp637
tp638
I01
s(g6
(g10
g169
tp639
Rp640
g6
(g10
g525
tp641
Rp642
g6
(g10
S'\x95'
p643
tp644
Rp645
tp646
I01
s(g6
(g10
g105
tp647
Rp648
g6
(g10
g62
tp649
Rp650
g6
(g10
g245
tp651
Rp652
tp653
I01
s(g6
(g10
g209
tp654
Rp655
g6
(g10
g155
tp656
Rp657
g6
(g10
S'2'
p658
tp659
Rp660
tp661
I01
s(g6
(g10
g136
tp662
Rp663
g6
(g10
g419
tp664
Rp665
g6
(g10
g496
tp666
Rp667
tp668
I01
s(g6
(g10
g188
tp669
Rp670
g6
(g10
S'\x96'
p671
tp672
Rp673
g6
(g10
g461
tp674
Rp675
tp676
I01
s(g6
(g10
g13
tp677
Rp678
g6
(g10
g302
tp679
Rp680
g6
(g10
S'\x9b'
p681
tp682
Rp683
tp684
I01
s(g6
(g10
g209
tp685
Rp686
g6
(g10
g384
tp687
Rp688
g6
(g10
S'\x82'
p689
tp690
Rp691
tp692
I01
s(g6
(g10
g52
tp693
Rp694
g6
(g10
g533
tp695
Rp696
g6
(g10
g91
tp697
Rp698
tp699
I01
s(g6
(g10
g105
tp700
Rp701
g6
(g10
g293
tp702
Rp703
g6
(g10
g201
tp704
Rp705
tp706
I01
s(g6
(g10
g136
tp707
Rp708
g6
(g10
g467
tp709
Rp710
g6
(g10
g467
tp711
Rp712
tp713
I01
s(g6
(g10
g95
tp714
Rp715
g6
(g10
S'0'
p716
tp717
Rp718
g6
(g10
S'\xb8'
p719
tp720
Rp721
tp722
I01
s(g6
(g10
g95
tp723
Rp724
g6
(g10
g476
tp725
Rp726
g6
(g10
S'\xd6'
p727
tp728
Rp729
tp730
I01
s(g6
(g10
g209
tp731
Rp732
g6
(g10
S'r'
p733
tp734
Rp735
g6
(g10
S'\xcd'
p736
tp737
Rp738
tp739
I01
s(g6
(g10
g136
tp740
Rp741
g6
(g10
g215
tp742
Rp743
g6
(g10
S'\x99'
p744
tp745
Rp746
tp747
I01
s(g6
(g10
g16
tp748
Rp749
g6
(g10
S'\r'
p750
tp751
Rp752
g6
(g10
S'>'
p753
tp754
Rp755
tp756
I01
s(g6
(g10
g188
tp757
Rp758
g6
(g10
S'c'
p759
tp760
Rp761
g6
(g10
S'\xd4'
p762
tp763
Rp764
tp765
I01
s(g6
(g10
g105
tp766
Rp767
g6
(g10
g533
tp768
Rp769
g6
(g10
S'a'
p770
tp771
Rp772
tp773
I01
s(g6
(g10
S','
p774
tp775
Rp776
g6
(g10
S'\x81'
p777
tp778
Rp779
g6
(g10
S'\x8f'
p780
tp781
Rp782
tp783
I01
s(g6
(g10
g121
tp784
Rp785
g6
(g10
g461
tp786
Rp787
g6
(g10
g118
tp788
Rp789
tp790
I01
s(g6
(g10
g136
tp791
Rp792
g6
(g10
g311
tp793
Rp794
g6
(g10
g77
tp795
Rp796
tp797
I01
s(g6
(g10
g136
tp798
Rp799
g6
(g10
g376
tp800
Rp801
g6
(g10
S'\xb2'
p802
tp803
Rp804
tp805
I01
s(g6
(g10
g136
tp806
Rp807
g6
(g10
g184
tp808
Rp809
g6
(g10
g77
tp810
Rp811
tp812
I01
s(g6
(g10
g13
tp813
Rp814
g6
(g10
g88
tp815
Rp816
g6
(g10
g536
tp817
Rp818
tp819
I01
s(g6
(g10
g232
tp820
Rp821
g6
(g10
g517
tp822
Rp823
g6
(g10
S'\xcb'
p824
tp825
Rp826
tp827
I01
s(g6
(g10
g13
tp828
Rp829
g6
(g10
S'\xc9'
p830
tp831
Rp832
g6
(g10
S'\x91'
p833
tp834
Rp835
tp836
I01
s(g6
(g10
g209
tp837
Rp838
g6
(g10
g62
tp839
Rp840
g6
(g10
S'\xdc'
p841
tp842
Rp843
tp844
I01
s(g6
(g10
g105
tp845
Rp846
g6
(g10
g296
tp847
Rp848
g6
(g10
S'\xbb'
p849
tp850
Rp851
tp852
I01
s(g6
(g10
g136
tp853
Rp854
g6
(g10
g13
tp855
Rp856
g6
(g10
g750
tp857
Rp858
tp859
I01
s(g6
(g10
g95
tp860
Rp861
g6
(g10
g384
tp862
Rp863
g6
(g10
S'\x9f'
p864
tp865
Rp866
tp867
I01
s(g6
(g10
g209
tp868
Rp869
g6
(g10
g525
tp870
Rp871
g6
(g10
S'\xaf'
p872
tp873
Rp874
tp875
I01
s(g6
(g10
g169
tp876
Rp877
g6
(g10
g95
tp878
Rp879
g6
(g10
g404
tp880
Rp881
tp882
I01
s(g6
(g10
g105
tp883
Rp884
g6
(g10
S'Q'
p885
tp886
Rp887
g6
(g10
g753
tp888
Rp889
tp890
I01
s(g6
(g10
g169
tp891
Rp892
g6
(g10
g759
tp893
Rp894
g6
(g10
g487
tp895
Rp896
tp897
I01
s(g6
(g10
g13
tp898
Rp899
g6
(g10
g71
tp900
Rp901
g6
(g10
S'\xbe'
p902
tp903
Rp904
tp905
I01
s(g6
(g10
g95
tp906
Rp907
g6
(g10
g777
tp908
Rp909
g6
(g10
g759
tp910
Rp911
tp912
I01
s(g6
(g10
g188
tp913
Rp914
g6
(g10
g215
tp915
Rp916
g6
(g10
g193
tp917
Rp918
tp919
I01
s(g6
(g10
g136
tp920
Rp921
g6
(g10
g296
tp922
Rp923
g6
(g10
S'\x9e'
p924
tp925
Rp926
tp927
I01
s(g6
(g10
g105
tp928
Rp929
g6
(g10
g393
tp930
Rp931
g6
(g10
g130
tp932
Rp933
tp934
I01
s(g6
(g10
g42
tp935
Rp936
g6
(g10
g13
tp937
Rp938
g6
(g10
S'\x83'
p939
tp940
Rp941
tp942
I01
s(g6
(g10
g209
tp943
Rp944
g6
(g10
g573
tp945
Rp946
g6
(g10
g681
tp947
Rp948
tp949
I01
s(g6
(g10
g105
tp950
Rp951
g6
(g10
g557
tp952
Rp953
g6
(g10
g849
tp954
Rp955
tp956
I01
s(g6
(g10
g169
tp957
Rp958
g6
(g10
g384
tp959
Rp960
g6
(g10
g101
tp961
Rp962
tp963
I01
s(g6
(g10
g95
tp964
Rp965
g6
(g10
g864
tp966
Rp967
g6
(g10
g396
tp968
Rp969
tp970
I01
s(g6
(g10
g143
tp971
Rp972
g6
(g10
g181
tp973
Rp974
g6
(g10
g280
tp975
Rp976
tp977
I01
s(g6
(g10
g77
tp978
Rp979
g6
(g10
g35
tp980
Rp981
g6
(g10
g470
tp982
Rp983
tp984
I01
s(g6
(g10
g188
tp985
Rp986
g6
(g10
g71
tp987
Rp988
g6
(g10
g35
tp989
Rp990
tp991
I01
s(g6
(g10
g232
tp992
Rp993
g6
(g10
g453
tp994
Rp995
g6
(g10
g750
tp996
Rp997
tp998
I01
s(g6
(g10
g52
tp999
Rp1000
g6
(g10
g95
tp1001
Rp1002
g6
(g10
S'\xe2'
p1003
tp1004
Rp1005
tp1006
I01
s(g6
(g10
g95
tp1007
Rp1008
g6
(g10
g502
tp1009
Rp1010
g6
(g10
S'^'
p1011
tp1012
Rp1013
tp1014
I01
s(g6
(g10
g232
tp1015
Rp1016
g6
(g10
g136
tp1017
Rp1018
g6
(g10
g184
tp1019
Rp1020
tp1021
I01
s(g6
(g10
g95
tp1022
Rp1023
g6
(g10
g413
tp1024
Rp1025
g6
(g10
g52
tp1026
Rp1027
tp1028
I01
s(g6
(g10
g52
tp1029
Rp1030
g6
(g10
g864
tp1031
Rp1032
g6
(g10
S'.'
p1033
tp1034
Rp1035
tp1036
I01
s(g6
(g10
g136
tp1037
Rp1038
g6
(g10
g502
tp1039
Rp1040
g6
(g10
g496
tp1041
Rp1042
tp1043
I01
s(g6
(g10
g13
tp1044
Rp1045
g6
(g10
g525
tp1046
Rp1047
g6
(g10
S'\x0f'
p1048
tp1049
Rp1050
tp1051
I01
s(g6
(g10
g42
tp1052
Rp1053
g6
(g10
g533
tp1054
Rp1055
g6
(g10
g215
tp1056
Rp1057
tp1058
I01
s(g6
(g10
g13
tp1059
Rp1060
g6
(g10
g259
tp1061
Rp1062
g6
(g10
S'\xd2'
p1063
tp1064
Rp1065
tp1066
I01
s(g6
(g10
g52
tp1067
Rp1068
g6
(g10
g384
tp1069
Rp1070
g6
(g10
g121
tp1071
Rp1072
tp1073
I01
s(g6
(g10
g105
tp1074
Rp1075
g6
(g10
g35
tp1076
Rp1077
g6
(g10
g461
tp1078
Rp1079
tp1080
I01
s(g6
(g10
g13
tp1081
Rp1082
g6
(g10
g337
tp1083
Rp1084
g6
(g10
g302
tp1085
Rp1086
tp1087
I01
s(g6
(g10
g13
tp1088
Rp1089
g6
(g10
g80
tp1090
Rp1091
g6
(g10
S'\x8c'
p1092
tp1093
Rp1094
tp1095
I01
s(g6
(g10
g95
tp1096
Rp1097
g6
(g10
g1048
tp1098
Rp1099
g6
(g10
S'@'
p1100
tp1101
Rp1102
tp1103
I01
s(g6
(g10
g143
tp1104
Rp1105
g6
(g10
g517
tp1106
Rp1107
g6
(g10
S'%'
p1108
tp1109
Rp1110
tp1111
I01
s(g6
(g10
g13
tp1112
Rp1113
g6
(g10
g885
tp1114
Rp1115
g6
(g10
g80
tp1116
Rp1117
tp1118
I01
s(g6
(g10
g136
tp1119
Rp1120
g6
(g10
g293
tp1121
Rp1122
g6
(g10
S'\xd5'
p1123
tp1124
Rp1125
tp1126
I01
s(g6
(g10
g105
tp1127
Rp1128
g6
(g10
g311
tp1129
Rp1130
g6
(g10
g753
tp1131
Rp1132
tp1133
I01
s(g6
(g10
g143
tp1134
Rp1135
g6
(g10
g533
tp1136
Rp1137
g6
(g10
g762
tp1138
Rp1139
tp1140
I01
s(g6
(g10
g188
tp1141
Rp1142
g6
(g10
g864
tp1143
Rp1144
g6
(g10
g280
tp1145
Rp1146
tp1147
I01
s(g6
(g10
g105
tp1148
Rp1149
g6
(g10
g95
tp1150
Rp1151
g6
(g10
S'\xc5'
p1152
tp1153
Rp1154
tp1155
I01
s(g6
(g10
g136
tp1156
Rp1157
g6
(g10
g337
tp1158
Rp1159
g6
(g10
S'I'
p1160
tp1161
Rp1162
tp1163
I01
s(g6
(g10
g42
tp1164
Rp1165
g6
(g10
g1063
tp1166
Rp1167
g6
(g10
S'\xdd'
p1168
tp1169
Rp1170
tp1171
I01
s(g6
(g10
g42
tp1172
Rp1173
g6
(g10
g557
tp1174
Rp1175
g6
(g10
S'\x15'
p1176
tp1177
Rp1178
tp1179
I01
s(g6
(g10
g52
tp1180
Rp1181
g6
(g10
g320
tp1182
Rp1183
g6
(g10
g38
tp1184
Rp1185
tp1186
I01
s(g6
(g10
g105
tp1187
Rp1188
g6
(g10
g293
tp1189
Rp1190
g6
(g10
g1108
tp1191
Rp1192
tp1193
I01
s(g6
(g10
g209
tp1194
Rp1195
g6
(g10
g1063
tp1196
Rp1197
g6
(g10
g671
tp1198
Rp1199
tp1200
I01
s(g6
(g10
g188
tp1201
Rp1202
g6
(g10
g716
tp1203
Rp1204
g6
(g10
S'/'
p1205
tp1206
Rp1207
tp1208
I01
s(g6
(g10
g95
tp1209
Rp1210
g6
(g10
g320
tp1211
Rp1212
g6
(g10
S'\x1d'
p1213
tp1214
Rp1215
tp1216
I01
s(g6
(g10
g52
tp1217
Rp1218
g6
(g10
g557
tp1219
Rp1220
g6
(g10
g296
tp1221
Rp1222
tp1223
I01
s(g6
(g10
g95
tp1224
Rp1225
g6
(g10
g311
tp1226
Rp1227
g6
(g10
g139
tp1228
Rp1229
tp1230
I01
s(g6
(g10
g209
tp1231
Rp1232
g6
(g10
g181
tp1233
Rp1234
g6
(g10
g16
tp1235
Rp1236
tp1237
I01
s(g6
(g10
g774
tp1238
Rp1239
g6
(g10
g453
tp1240
Rp1241
g6
(g10
g496
tp1242
Rp1243
tp1244
I01
s(g6
(g10
g136
tp1245
Rp1246
g6
(g10
g28
tp1247
Rp1248
g6
(g10
S'\x1c'
p1249
tp1250
Rp1251
tp1252
I01
s(g6
(g10
g169
tp1253
Rp1254
g6
(g10
g1176
tp1255
Rp1256
g6
(g10
g139
tp1257
Rp1258
tp1259
I01
s(g6
(g10
g209
tp1260
Rp1261
g6
(g10
g88
tp1262
Rp1263
g6
(g10
g422
tp1264
Rp1265
tp1266
I01
s(g6
(g10
g136
tp1267
Rp1268
g6
(g10
g453
tp1269
Rp1270
g6
(g10
g118
tp1271
Rp1272
tp1273
I01
s(g6
(g10
g13
tp1274
Rp1275
g6
(g10
g320
tp1276
Rp1277
g6
(g10
g671
tp1278
Rp1279
tp1280
I01
s(g6
(g10
g774
tp1281
Rp1282
g6
(g10
g337
tp1283
Rp1284
g6
(g10
S'S'
p1285
tp1286
Rp1287
tp1288
I01
s(g6
(g10
g105
tp1289
Rp1290
g6
(g10
g311
tp1291
Rp1292
g6
(g10
S'\x07'
p1293
tp1294
Rp1295
tp1296
I01
s(g6
(g10
g188
tp1297
Rp1298
g6
(g10
g320
tp1299
Rp1300
g6
(g10
g770
tp1301
Rp1302
tp1303
I01
s(g6
(g10
g77
tp1304
Rp1305
g6
(g10
g502
tp1306
Rp1307
g6
(g10
g396
tp1308
Rp1309
tp1310
I01
s(g6
(g10
g136
tp1311
Rp1312
g6
(g10
g155
tp1313
Rp1314
g6
(g10
g824
tp1315
Rp1316
tp1317
I01
s(g6
(g10
g52
tp1318
Rp1319
g6
(g10
g155
tp1320
Rp1321
g6
(g10
g560
tp1322
Rp1323
tp1324
I01
s(g6
(g10
g52
tp1325
Rp1326
g6
(g10
g830
tp1327
Rp1328
g6
(g10
S'\xa1'
p1329
tp1330
Rp1331
tp1332
I01
s(g6
(g10
g169
tp1333
Rp1334
g6
(g10
g108
tp1335
Rp1336
g6
(g10
g101
tp1337
Rp1338
tp1339
I01
s(g6
(g10
S'\xa7'
p1340
tp1341
Rp1342
g6
(g10
S'\xb9'
p1343
tp1344
Rp1345
g6
(g10
g1176
tp1346
Rp1347
tp1348
I01
s(g6
(g10
g95
tp1349
Rp1350
g6
(g10
g716
tp1351
Rp1352
g6
(g10
g175
tp1353
Rp1354
tp1355
I01
s(g6
(g10
g13
tp1356
Rp1357
g6
(g10
g517
tp1358
Rp1359
g6
(g10
g62
tp1360
Rp1361
tp1362
I01
s(g6
(g10
g105
tp1363
Rp1364
g6
(g10
g493
tp1365
Rp1366
g6
(g10
g770
tp1367
Rp1368
tp1369
I01
s(g6
(g10
g136
tp1370
Rp1371
g6
(g10
g172
tp1372
Rp1373
g6
(g10
S'\x94'
p1374
tp1375
Rp1376
tp1377
I01
s(g6
(g10
g95
tp1378
Rp1379
g6
(g10
g376
tp1380
Rp1381
g6
(g10
g774
tp1382
Rp1383
tp1384
I01
s(g6
(g10
g105
tp1385
Rp1386
g6
(g10
g624
tp1387
Rp1388
g6
(g10
g320
tp1389
Rp1390
tp1391
I01
s(g6
(g10
g105
tp1392
Rp1393
g6
(g10
g172
tp1394
Rp1395
g6
(g10
g410
tp1396
Rp1397
tp1398
I01
s(g6
(g10
g13
tp1399
Rp1400
g6
(g10
g476
tp1401
Rp1402
g6
(g10
g1343
tp1403
Rp1404
tp1405
I01
s(g6
(g10
g95
tp1406
Rp1407
g6
(g10
g259
tp1408
Rp1409
g6
(g10
g404
tp1410
Rp1411
tp1412
I01
s(g6
(g10
g169
tp1413
Rp1414
g6
(g10
g71
tp1415
Rp1416
g6
(g10
g413
tp1417
Rp1418
tp1419
I01
s(g6
(g10
g32
tp1420
Rp1421
g6
(g10
g733
tp1422
Rp1423
g6
(g10
g91
tp1424
Rp1425
tp1426
I01
s(g6
(g10
g13
tp1427
Rp1428
g6
(g10
g331
tp1429
Rp1430
g6
(g10
g658
tp1431
Rp1432
tp1433
I01
s(g6
(g10
g774
tp1434
Rp1435
g6
(g10
g476
tp1436
Rp1437
g6
(g10
g311
tp1438
Rp1439
tp1440
I01
s(g6
(g10
g77
tp1441
Rp1442
g6
(g10
g1063
tp1443
Rp1444
g6
(g10
S'\x86'
p1445
tp1446
Rp1447
tp1448
I01
s(g6
(g10
g169
tp1449
Rp1450
g6
(g10
g320
tp1451
Rp1452
g6
(g10
g1445
tp1453
Rp1454
tp1455
I01
s(g6
(g10
g209
tp1456
Rp1457
g6
(g10
g346
tp1458
Rp1459
g6
(g10
g158
tp1460
Rp1461
tp1462
I01
s(g6
(g10
g13
tp1463
Rp1464
g6
(g10
g155
tp1465
Rp1466
g6
(g10
g902
tp1467
Rp1468
tp1469
I01
s(g6
(g10
g95
tp1470
Rp1471
g6
(g10
g340
tp1472
Rp1473
g6
(g10
g470
tp1474
Rp1475
tp1476
I01
s(g6
(g10
g13
tp1477
Rp1478
g6
(g10
g136
tp1479
Rp1480
g6
(g10
S'\x14'
p1481
tp1482
Rp1483
tp1484
I01
s(g6
(g10
g188
tp1485
Rp1486
g6
(g10
g45
tp1487
Rp1488
g6
(g10
S'M'
p1489
tp1490
Rp1491
tp1492
I01
s(g6
(g10
g52
tp1493
Rp1494
g6
(g10
g71
tp1495
Rp1496
g6
(g10
g1329
tp1497
Rp1498
tp1499
I01
s(g6
(g10
g136
tp1500
Rp1501
g6
(g10
g1048
tp1502
Rp1503
g6
(g10
g467
tp1504
Rp1505
tp1506
I01
s(g6
(g10
g95
tp1507
Rp1508
g6
(g10
g1048
tp1509
Rp1510
g6
(g10
g727
tp1511
Rp1512
tp1513
I01
s(g6
(g10
g52
tp1514
Rp1515
g6
(g10
g80
tp1516
Rp1517
g6
(g10
S'='
p1518
tp1519
Rp1520
tp1521
I01
s(g6
(g10
g95
tp1522
Rp1523
g6
(g10
g340
tp1524
Rp1525
g6
(g10
g1213
tp1526
Rp1527
tp1528
I01
s(g6
(g10
g143
tp1529
Rp1530
g6
(g10
g146
tp1531
Rp1532
g6
(g10
g35
tp1533
Rp1534
tp1535
I01
s(g6
(g10
g13
tp1536
Rp1537
g6
(g10
g467
tp1538
Rp1539
g6
(g10
g1343
tp1540
Rp1541
tp1542
I01
s(g6
(g10
g266
tp1543
Rp1544
g6
(g10
g215
tp1545
Rp1546
g6
(g10
g13
tp1547
Rp1548
tp1549
I01
s(g6
(g10
g42
tp1550
Rp1551
g6
(g10
g744
tp1552
Rp1553
g6
(g10
g1168
tp1554
Rp1555
tp1556
I01
s(g6
(g10
g52
tp1557
Rp1558
g6
(g10
g484
tp1559
Rp1560
g6
(g10
g939
tp1561
Rp1562
tp1563
I01
s(g6
(g10
g266
tp1564
Rp1565
g6
(g10
g296
tp1566
Rp1567
g6
(g10
g1063
tp1568
Rp1569
tp1570
I01
s(g6
(g10
g95
tp1571
Rp1572
g6
(g10
g314
tp1573
Rp1574
g6
(g10
S'\x0e'
p1575
tp1576
Rp1577
tp1578
I01
s(g6
(g10
g32
tp1579
Rp1580
g6
(g10
g155
tp1581
Rp1582
g6
(g10
g1176
tp1583
Rp1584
tp1585
I01
s(g6
(g10
g136
tp1586
Rp1587
g6
(g10
g864
tp1588
Rp1589
g6
(g10
g384
tp1590
Rp1591
tp1592
I01
s(g6
(g10
g136
tp1593
Rp1594
g6
(g10
g557
tp1595
Rp1596
g6
(g10
g924
tp1597
Rp1598
tp1599
I01
s(g6
(g10
g52
tp1600
Rp1601
g6
(g10
g45
tp1602
Rp1603
g6
(g10
g453
tp1604
Rp1605
tp1606
I01
s(g6
(g10
g13
tp1607
Rp1608
g6
(g10
g759
tp1609
Rp1610
g6
(g10
S'\xd7'
p1611
tp1612
Rp1613
tp1614
I01
s(g6
(g10
g136
tp1615
Rp1616
g6
(g10
g830
tp1617
Rp1618
g6
(g10
g363
tp1619
Rp1620
tp1621
I01
s(g6
(g10
g13
tp1622
Rp1623
g6
(g10
g25
tp1624
Rp1625
g6
(g10
g1092
tp1626
Rp1627
tp1628
I01
s(g6
(g10
g209
tp1629
Rp1630
g6
(g10
g184
tp1631
Rp1632
g6
(g10
g1481
tp1633
Rp1634
tp1635
I01
s(g6
(g10
g136
tp1636
Rp1637
g6
(g10
g48
tp1638
Rp1639
g6
(g10
g802
tp1640
Rp1641
tp1642
I01
s(g6
(g10
g188
tp1643
Rp1644
g6
(g10
g45
tp1645
Rp1646
g6
(g10
g461
tp1647
Rp1648
tp1649
I01
s(g6
(g10
g105
tp1650
Rp1651
g6
(g10
g98
tp1652
Rp1653
g6
(g10
S'\xac'
p1654
tp1655
Rp1656
tp1657
I01
s(g6
(g10
g52
tp1658
Rp1659
g6
(g10
g108
tp1660
Rp1661
g6
(g10
g453
tp1662
Rp1663
tp1664
I01
s(g6
(g10
g188
tp1665
Rp1666
g6
(g10
g1176
tp1667
Rp1668
g6
(g10
g1293
tp1669
Rp1670
tp1671
I01
s(g6
(g10
g169
tp1672
Rp1673
g6
(g10
g493
tp1674
Rp1675
g6
(g10
g487
tp1676
Rp1677
tp1678
I01
s(g6
(g10
g143
tp1679
Rp1680
g6
(g10
g716
tp1681
Rp1682
g6
(g10
g266
tp1683
Rp1684
tp1685
I01
s(g6
(g10
g232
tp1686
Rp1687
g6
(g10
g45
tp1688
Rp1689
g6
(g10
g780
tp1690
Rp1691
tp1692
I01
s(g6
(g10
g105
tp1693
Rp1694
g6
(g10
g340
tp1695
Rp1696
g6
(g10
g331
tp1697
Rp1698
tp1699
I01
s(g6
(g10
g95
tp1700
Rp1701
g6
(g10
g311
tp1702
Rp1703
g6
(g10
g487
tp1704
Rp1705
tp1706
I01
s(g6
(g10
g95
tp1707
Rp1708
g6
(g10
g181
tp1709
Rp1710
g6
(g10
S'\xd1'
p1711
tp1712
Rp1713
tp1714
I01
s(g6
(g10
g105
tp1715
Rp1716
g6
(g10
g293
tp1717
Rp1718
g6
(g10
S'\x8e'
p1719
tp1720
Rp1721
tp1722
I01
s(g6
(g10
g209
tp1723
Rp1724
g6
(g10
g885
tp1725
Rp1726
g6
(g10
g16
tp1727
Rp1728
tp1729
I01
s(g6
(g10
g136
tp1730
Rp1731
g6
(g10
g1048
tp1732
Rp1733
g6
(g10
g780
tp1734
Rp1735
tp1736
I01
s(g6
(g10
g136
tp1737
Rp1738
g6
(g10
g467
tp1739
Rp1740
g6
(g10
g780
tp1741
Rp1742
tp1743
I01
s(g6
(g10
g209
tp1744
Rp1745
g6
(g10
g19
tp1746
Rp1747
g6
(g10
g422
tp1748
Rp1749
tp1750
I01
s(g6
(g10
g77
tp1751
Rp1752
g6
(g10
g71
tp1753
Rp1754
g6
(g10
g175
tp1755
Rp1756
tp1757
I01
s(g6
(g10
g105
tp1758
Rp1759
g6
(g10
g759
tp1760
Rp1761
g6
(g10
g1293
tp1762
Rp1763
tp1764
I01
s(g6
(g10
g77
tp1765
Rp1766
g6
(g10
g25
tp1767
Rp1768
g6
(g10
g1213
tp1769
Rp1770
tp1771
I01
s(g6
(g10
g143
tp1772
Rp1773
g6
(g10
g259
tp1774
Rp1775
g6
(g10
g155
tp1776
Rp1777
tp1778
I01
s(g6
(g10
g13
tp1779
Rp1780
g6
(g10
g48
tp1781
Rp1782
g6
(g10
g841
tp1783
Rp1784
tp1785
I01
s(g6
(g10
g32
tp1786
Rp1787
g6
(g10
g293
tp1788
Rp1789
g6
(g10
S'\x1f'
p1790
tp1791
Rp1792
tp1793
I01
s(g6
(g10
g77
tp1794
Rp1795
g6
(g10
g830
tp1796
Rp1797
g6
(g10
g305
tp1798
Rp1799
tp1800
I01
s(g6
(g10
g13
tp1801
Rp1802
g6
(g10
g13
tp1803
Rp1804
g6
(g10
g736
tp1805
Rp1806
tp1807
I01
s(g6
(g10
g143
tp1808
Rp1809
g6
(g10
g864
tp1810
Rp1811
g6
(g10
g410
tp1812
Rp1813
tp1814
I01
s(g6
(g10
g169
tp1815
Rp1816
g6
(g10
g733
tp1817
Rp1818
g6
(g10
g470
tp1819
Rp1820
tp1821
I01
s(g6
(g10
g52
tp1822
Rp1823
g6
(g10
g172
tp1824
Rp1825
g6
(g10
g1329
tp1826
Rp1827
tp1828
I01
s(g6
(g10
g52
tp1829
Rp1830
g6
(g10
S'l'
p1831
tp1832
Rp1833
g6
(g10
g1790
tp1834
Rp1835
tp1836
I01
s(g6
(g10
g42
tp1837
Rp1838
g6
(g10
g413
tp1839
Rp1840
g6
(g10
S'\x1a'
p1841
tp1842
Rp1843
tp1844
I01
s(g6
(g10
g169
tp1845
Rp1846
g6
(g10
g62
tp1847
Rp1848
g6
(g10
g759
tp1849
Rp1850
tp1851
I01
s(g6
(g10
g77
tp1852
Rp1853
g6
(g10
g311
tp1854
Rp1855
g6
(g10
S'\xa4'
p1856
tp1857
Rp1858
tp1859
I01
s(g6
(g10
g169
tp1860
Rp1861
g6
(g10
g45
tp1862
Rp1863
g6
(g10
g727
tp1864
Rp1865
tp1866
I01
s(g6
(g10
g95
tp1867
Rp1868
g6
(g10
g346
tp1869
Rp1870
g6
(g10
g1575
tp1871
Rp1872
tp1873
I01
s(g6
(g10
g232
tp1874
Rp1875
g6
(g10
g557
tp1876
Rp1877
g6
(g10
g105
tp1878
Rp1879
tp1880
I01
s(g6
(g10
g13
tp1881
Rp1882
g6
(g10
g885
tp1883
Rp1884
g6
(g10
g1481
tp1885
Rp1886
tp1887
I01
s(g6
(g10
g13
tp1888
Rp1889
g6
(g10
g314
tp1890
Rp1891
g6
(g10
g19
tp1892
Rp1893
tp1894
I01
s(g6
(g10
g136
tp1895
Rp1896
g6
(g10
g80
tp1897
Rp1898
g6
(g10
g311
tp1899
Rp1900
tp1901
I01
s(g6
(g10
g105
tp1902
Rp1903
g6
(g10
g71
tp1904
Rp1905
g6
(g10
g280
tp1906
Rp1907
tp1908
I01
s(g6
(g10
g266
tp1909
Rp1910
g6
(g10
g215
tp1911
Rp1912
g6
(g10
g736
tp1913
Rp1914
tp1915
I01
s(g6
(g10
g13
tp1916
Rp1917
g6
(g10
g311
tp1918
Rp1919
g6
(g10
g143
tp1920
Rp1921
tp1922
I01
s(g6
(g10
g95
tp1923
Rp1924
g6
(g10
g25
tp1925
Rp1926
g6
(g10
g1100
tp1927
Rp1928
tp1929
I01
s(g6
(g10
g52
tp1930
Rp1931
g6
(g10
g346
tp1932
Rp1933
g6
(g10
S'\xce'
p1934
tp1935
Rp1936
tp1937
I01
s(g6
(g10
g136
tp1938
Rp1939
g6
(g10
g259
tp1940
Rp1941
g6
(g10
g340
tp1942
Rp1943
tp1944
I01
s(g6
(g10
g52
tp1945
Rp1946
g6
(g10
g296
tp1947
Rp1948
g6
(g10
g296
tp1949
Rp1950
tp1951
I01
s(g6
(g10
g13
tp1952
Rp1953
g6
(g10
g314
tp1954
Rp1955
g6
(g10
g42
tp1956
Rp1957
tp1958
I01
s(g6
(g10
g52
tp1959
Rp1960
g6
(g10
g19
tp1961
Rp1962
g6
(g10
g1168
tp1963
Rp1964
tp1965
I01
s(g6
(g10
g266
tp1966
Rp1967
g6
(g10
g393
tp1968
Rp1969
g6
(g10
g833
tp1970
Rp1971
tp1972
I01
s(g6
(g10
g136
tp1973
Rp1974
g6
(g10
g624
tp1975
Rp1976
g6
(g10
g1249
tp1977
Rp1978
tp1979
I01
s(g6
(g10
g42
tp1980
Rp1981
g6
(g10
g52
tp1982
Rp1983
g6
(g10
S'\x0b'
p1984
tp1985
Rp1986
tp1987
I01
s(g6
(g10
g266
tp1988
Rp1989
g6
(g10
g45
tp1990
Rp1991
g6
(g10
g28
tp1992
Rp1993
tp1994
I01
s(g6
(g10
g42
tp1995
Rp1996
g6
(g10
g215
tp1997
Rp1998
g6
(g10
g1168
tp1999
Rp2000
tp2001
I01
s(g6
(g10
g136
tp2002
Rp2003
g6
(g10
g105
tp2004
Rp2005
g6
(g10
g1285
tp2006
Rp2007
tp2008
I01
s(g6
(g10
g13
tp2009
Rp2010
g6
(g10
g413
tp2011
Rp2012
g6
(g10
g13
tp2013
Rp2014
tp2015
I01
s(g6
(g10
g105
tp2016
Rp2017
g6
(g10
g19
tp2018
Rp2019
g6
(g10
g136
tp2020
Rp2021
tp2022
I01
s(g6
(g10
g52
tp2023
Rp2024
g6
(g10
g453
tp2025
Rp2026
g6
(g10
g38
tp2027
Rp2028
tp2029
I01
s(g6
(g10
g95
tp2030
Rp2031
g6
(g10
g108
tp2032
Rp2033
g6
(g10
g864
tp2034
Rp2035
tp2036
I01
s(g6
(g10
g52
tp2037
Rp2038
g6
(g10
g671
tp2039
Rp2040
g6
(g10
g48
tp2041
Rp2042
tp2043
I01
s(g6
(g10
g105
tp2044
Rp2045
g6
(g10
g1831
tp2046
Rp2047
g6
(g10
g266
tp2048
Rp2049
tp2050
I01
s(g6
(g10
g95
tp2051
Rp2052
g6
(g10
g384
tp2053
Rp2054
g6
(g10
g98
tp2055
Rp2056
tp2057
I01
s(g6
(g10
S'\x88'
p2058
tp2059
Rp2060
g6
(g10
g551
tp2061
Rp2062
g6
(g10
g1100
tp2063
Rp2064
tp2065
I01
s(g6
(g10
g774
tp2066
Rp2067
g6
(g10
g314
tp2068
Rp2069
g6
(g10
g363
tp2070
Rp2071
tp2072
I01
s(g6
(g10
g209
tp2073
Rp2074
g6
(g10
g419
tp2075
Rp2076
g6
(g10
g143
tp2077
Rp2078
tp2079
I01
s(g6
(g10
g136
tp2080
Rp2081
g6
(g10
g759
tp2082
Rp2083
g6
(g10
S'\x17'
p2084
tp2085
Rp2086
tp2087
I01
s(g6
(g10
g13
tp2088
Rp2089
g6
(g10
g320
tp2090
Rp2091
g6
(g10
g71
tp2092
Rp2093
tp2094
I01
s(g6
(g10
g105
tp2095
Rp2096
g6
(g10
g885
tp2097
Rp2098
g6
(g10
g762
tp2099
Rp2100
tp2101
I01
s(g6
(g10
g136
tp2102
Rp2103
g6
(g10
g314
tp2104
Rp2105
g6
(g10
g232
tp2106
Rp2107
tp2108
I01
s(g6
(g10
g188
tp2109
Rp2110
g6
(g10
g155
tp2111
Rp2112
g6
(g10
g849
tp2113
Rp2114
tp2115
I01
s(g6
(g10
g95
tp2116
Rp2117
g6
(g10
g181
tp2118
Rp2119
g6
(g10
g139
tp2120
Rp2121
tp2122
I01
s(g6
(g10
g13
tp2123
Rp2124
g6
(g10
g476
tp2125
Rp2126
g6
(g10
g689
tp2127
Rp2128
tp2129
I01
s(g6
(g10
g188
tp2130
Rp2131
g6
(g10
g627
tp2132
Rp2133
g6
(g10
g461
tp2134
Rp2135
tp2136
I01
s(g6
(g10
g143
tp2137
Rp2138
g6
(g10
g1831
tp2139
Rp2140
g6
(g10
g387
tp2141
Rp2142
tp2143
I01
s(g6
(g10
g52
tp2144
Rp2145
g6
(g10
g302
tp2146
Rp2147
g6
(g10
g611
tp2148
Rp2149
tp2150
I01
s(g6
(g10
g188
tp2151
Rp2152
g6
(g10
g376
tp2153
Rp2154
g6
(g10
g155
tp2155
Rp2156
tp2157
I01
s(g6
(g10
g209
tp2158
Rp2159
g6
(g10
g280
tp2160
Rp2161
g6
(g10
S'\xe1'
p2162
tp2163
Rp2164
tp2165
I01
s(g6
(g10
g52
tp2166
Rp2167
g6
(g10
g108
tp2168
Rp2169
g6
(g10
g830
tp2170
Rp2171
tp2172
I01
s(g6
(g10
g136
tp2173
Rp2174
g6
(g10
S'\xc7'
p2175
tp2176
Rp2177
g6
(g10
g533
tp2178
Rp2179
tp2180
I01
s(g6
(g10
g136
tp2181
Rp2182
g6
(g10
g340
tp2183
Rp2184
g6
(g10
g118
tp2185
Rp2186
tp2187
I01
s(g6
(g10
g52
tp2188
Rp2189
g6
(g10
g671
tp2190
Rp2191
g6
(g10
g830
tp2192
Rp2193
tp2194
I01
s(g6
(g10
g77
tp2195
Rp2196
g6
(g10
g172
tp2197
Rp2198
g6
(g10
g719
tp2199
Rp2200
tp2201
I01
s(g6
(g10
g136
tp2202
Rp2203
g6
(g10
g502
tp2204
Rp2205
g6
(g10
S'D'
p2206
tp2207
Rp2208
tp2209
I01
s(g6
(g10
g52
tp2210
Rp2211
g6
(g10
g384
tp2212
Rp2213
g6
(g10
g65
tp2214
Rp2215
tp2216
I01
s(g6
(g10
g77
tp2217
Rp2218
g6
(g10
g671
tp2219
Rp2220
g6
(g10
S'\x13'
p2221
tp2222
Rp2223
tp2224
I01
s(g6
(g10
g136
tp2225
Rp2226
g6
(g10
g476
tp2227
Rp2228
g6
(g10
g780
tp2229
Rp2230
tp2231
I01
s(g6
(g10
g169
tp2232
Rp2233
g6
(g10
g1831
tp2234
Rp2235
g6
(g10
g259
tp2236
Rp2237
tp2238
I01
s(g6
(g10
g188
tp2239
Rp2240
g6
(g10
g557
tp2241
Rp2242
g6
(g10
g1719
tp2243
Rp2244
tp2245
I01
s(g6
(g10
g143
tp2246
Rp2247
g6
(g10
g467
tp2248
Rp2249
g6
(g10
g193
tp2250
Rp2251
tp2252
I01
s(g6
(g10
g209
tp2253
Rp2254
g6
(g10
g45
tp2255
Rp2256
g6
(g10
g1343
tp2257
Rp2258
tp2259
I01
s(g6
(g10
g42
tp2260
Rp2261
g6
(g10
g293
tp2262
Rp2263
g6
(g10
g1003
tp2264
Rp2265
tp2266
I01
s(g6
(g10
g774
tp2267
Rp2268
g6
(g10
g502
tp2269
Rp2270
g6
(g10
g384
tp2271
Rp2272
tp2273
I01
s(g6
(g10
g209
tp2274
Rp2275
g6
(g10
g108
tp2276
Rp2277
g6
(g10
g551
tp2278
Rp2279
tp2280
I01
s(g6
(g10
g13
tp2281
Rp2282
g6
(g10
g864
tp2283
Rp2284
g6
(g10
g16
tp2285
Rp2286
tp2287
I01
s(g6
(g10
g774
tp2288
Rp2289
g6
(g10
g517
tp2290
Rp2291
g6
(g10
g363
tp2292
Rp2293
tp2294
I01
s(g6
(g10
g188
tp2295
Rp2296
g6
(g10
g573
tp2297
Rp2298
g6
(g10
g1205
tp2299
Rp2300
tp2301
I01
s(g6
(g10
g13
tp2302
Rp2303
g6
(g10
g280
tp2304
Rp2305
g6
(g10
g143
tp2306
Rp2307
tp2308
I01
s(g6
(g10
g143
tp2309
Rp2310
g6
(g10
g184
tp2311
Rp2312
g6
(g10
g222
tp2313
Rp2314
tp2315
I01
s(g6
(g10
g169
tp2316
Rp2317
g6
(g10
g181
tp2318
Rp2319
g6
(g10
S';'
p2320
tp2321
Rp2322
tp2323
I01
s(g6
(g10
g52
tp2324
Rp2325
g6
(g10
g337
tp2326
Rp2327
g6
(g10
S'\xb5'
p2328
tp2329
Rp2330
tp2331
I01
s(g6
(g10
g136
tp2332
Rp2333
g6
(g10
g716
tp2334
Rp2335
g6
(g10
g146
tp2336
Rp2337
tp2338
I01
s(g6
(g10
g52
tp2339
Rp2340
g6
(g10
g16
tp2341
Rp2342
g6
(g10
g1934
tp2343
Rp2344
tp2345
I01
s(g6
(g10
g52
tp2346
Rp2347
g6
(g10
g733
tp2348
Rp2349
g6
(g10
g218
tp2350
Rp2351
tp2352
I01
s(g6
(g10
g95
tp2353
Rp2354
g6
(g10
g80
tp2355
Rp2356
g6
(g10
g2221
tp2357
Rp2358
tp2359
I01
s(g6
(g10
g52
tp2360
Rp2361
g6
(g10
g525
tp2362
Rp2363
g6
(g10
g2058
tp2364
Rp2365
tp2366
I01
s(g6
(g10
g95
tp2367
Rp2368
g6
(g10
g259
tp2369
Rp2370
g6
(g10
g305
tp2371
Rp2372
tp2373
I01
s(g6
(g10
g52
tp2374
Rp2375
g6
(g10
g384
tp2376
Rp2377
g6
(g10
g453
tp2378
Rp2379
tp2380
I01
s(g6
(g10
g52
tp2381
Rp2382
g6
(g10
g1831
tp2383
Rp2384
g6
(g10
g2328
tp2385
Rp2386
tp2387
I01
s(g6
(g10
g52
tp2388
Rp2389
g6
(g10
g16
tp2390
Rp2391
g6
(g10
g209
tp2392
Rp2393
tp2394
I01
s(g6
(g10
g42
tp2395
Rp2396
g6
(g10
g1831
tp2397
Rp2398
g6
(g10
g32
tp2399
Rp2400
tp2401
I01
s(g6
(g10
g52
tp2402
Rp2403
g6
(g10
g744
tp2404
Rp2405
g6
(g10
g1518
tp2406
Rp2407
tp2408
I01
s(g6
(g10
g105
tp2409
Rp2410
g6
(g10
g1831
tp2411
Rp2412
g6
(g10
g627
tp2413
Rp2414
tp2415
I01
s(g6
(g10
g209
tp2416
Rp2417
g6
(g10
g127
tp2418
Rp2419
g6
(g10
g19
tp2420
Rp2421
tp2422
I01
s(g6
(g10
g266
tp2423
Rp2424
g6
(g10
g830
tp2425
Rp2426
g6
(g10
S'\x05'
p2427
tp2428
Rp2429
tp2430
I01
s(g6
(g10
g105
tp2431
Rp2432
g6
(g10
g419
tp2433
Rp2434
g6
(g10
S'\x9d'
p2435
tp2436
Rp2437
tp2438
I01
s(g6
(g10
g143
tp2439
Rp2440
g6
(g10
g13
tp2441
Rp2442
g6
(g10
g1293
tp2443
Rp2444
tp2445
I01
s(g6
(g10
g169
tp2446
Rp2447
g6
(g10
g269
tp2448
Rp2449
g6
(g10
g1213
tp2450
Rp2451
tp2452
I01
s(g6
(g10
g136
tp2453
Rp2454
g6
(g10
g340
tp2455
Rp2456
g6
(g10
g323
tp2457
Rp2458
tp2459
I01
s(g6
(g10
g105
tp2460
Rp2461
g6
(g10
g493
tp2462
Rp2463
g6
(g10
S'\xca'
p2464
tp2465
Rp2466
tp2467
I01
s(g6
(g10
g266
tp2468
Rp2469
g6
(g10
g453
tp2470
Rp2471
g6
(g10
g422
tp2472
Rp2473
tp2474
I01
s(g6
(g10
g143
tp2475
Rp2476
g6
(g10
g105
tp2477
Rp2478
g6
(g10
S'\xe3'
p2479
tp2480
Rp2481
tp2482
I01
s(g6
(g10
g95
tp2483
Rp2484
g6
(g10
g1831
tp2485
Rp2486
g6
(g10
g404
tp2487
Rp2488
tp2489
I01
s(g6
(g10
g209
tp2490
Rp2491
g6
(g10
g259
tp2492
Rp2493
g6
(g10
g302
tp2494
Rp2495
tp2496
I01
s(g6
(g10
g95
tp2497
Rp2498
g6
(g10
g453
tp2499
Rp2500
g6
(g10
g1445
tp2501
Rp2502
tp2503
I01
s(g6
(g10
g209
tp2504
Rp2505
g6
(g10
g671
tp2506
Rp2507
g6
(g10
g1343
tp2508
Rp2509
tp2510
I01
s(g6
(g10
g105
tp2511
Rp2512
g6
(g10
g777
tp2513
Rp2514
g6
(g10
g624
tp2515
Rp2516
tp2517
I01
s(g6
(g10
g774
tp2518
Rp2519
g6
(g10
g476
tp2520
Rp2521
g6
(g10
g744
tp2522
Rp2523
tp2524
I01
s(g6
(g10
g77
tp2525
Rp2526
g6
(g10
g28
tp2527
Rp2528
g6
(g10
g727
tp2529
Rp2530
tp2531
I01
s(g6
(g10
g95
tp2532
Rp2533
g6
(g10
g215
tp2534
Rp2535
g6
(g10
S'\xe0'
p2536
tp2537
Rp2538
tp2539
I01
s(g6
(g10
g52
tp2540
Rp2541
g6
(g10
g259
tp2542
Rp2543
g6
(g10
g2328
tp2544
Rp2545
tp2546
I01
s(g6
(g10
g13
tp2547
Rp2548
g6
(g10
g302
tp2549
Rp2550
g6
(g10
g2427
tp2551
Rp2552
tp2553
I01
s(g6
(g10
g52
tp2554
Rp2555
g6
(g10
g16
tp2556
Rp2557
g6
(g10
S'8'
p2558
tp2559
Rp2560
tp2561
I01
s(g6
(g10
g13
tp2562
Rp2563
g6
(g10
g95
tp2564
Rp2565
g6
(g10
g681
tp2566
Rp2567
tp2568
I01
s(g6
(g10
g209
tp2569
Rp2570
g6
(g10
g101
tp2571
Rp2572
g6
(g10
g2427
tp2573
Rp2574
tp2575
I01
s(g6
(g10
g136
tp2576
Rp2577
g6
(g10
g184
tp2578
Rp2579
g6
(g10
g533
tp2580
Rp2581
tp2582
I01
s(g6
(g10
g136
tp2583
Rp2584
g6
(g10
g95
tp2585
Rp2586
g6
(g10
g105
tp2587
Rp2588
tp2589
I01
s(g6
(g10
g52
tp2590
Rp2591
g6
(g10
g413
tp2592
Rp2593
g6
(g10
S'G'
p2594
tp2595
Rp2596
tp2597
I01
s(g6
(g10
g13
tp2598
Rp2599
g6
(g10
g624
tp2600
Rp2601
g6
(g10
g1048
tp2602
Rp2603
tp2604
I01
s(g6
(g10
g169
tp2605
Rp2606
g6
(g10
g337
tp2607
Rp2608
g6
(g10
g774
tp2609
Rp2610
tp2611
I01
s(g6
(g10
g209
tp2612
Rp2613
g6
(g10
g517
tp2614
Rp2615
g6
(g10
g42
tp2616
Rp2617
tp2618
I01
s(g6
(g10
g136
tp2619
Rp2620
g6
(g10
g525
tp2621
Rp2622
g6
(g10
g1160
tp2623
Rp2624
tp2625
I01
s(g6
(g10
g52
tp2626
Rp2627
g6
(g10
g422
tp2628
Rp2629
g6
(g10
g1841
tp2630
Rp2631
tp2632
I01
s(g6
(g10
g52
tp2633
Rp2634
g6
(g10
g101
tp2635
Rp2636
g6
(g10
g1003
tp2637
Rp2638
tp2639
I01
s(g6
(g10
g52
tp2640
Rp2641
g6
(g10
g108
tp2642
Rp2643
g6
(g10
g121
tp2644
Rp2645
tp2646
I01
s(g6
(g10
g136
tp2647
Rp2648
g6
(g10
g184
tp2649
Rp2650
g6
(g10
g2084
tp2651
Rp2652
tp2653
I01
s(g6
(g10
g13
tp2654
Rp2655
g6
(g10
g293
tp2656
Rp2657
g6
(g10
S'\xc8'
p2658
tp2659
Rp2660
tp2661
I01
s(g6
(g10
g105
tp2662
Rp2663
g6
(g10
g311
tp2664
Rp2665
g6
(g10
g762
tp2666
Rp2667
tp2668
I01
s(g6
(g10
g105
tp2669
Rp2670
g6
(g10
g184
tp2671
Rp2672
g6
(g10
g2435
tp2673
Rp2674
tp2675
I01
s(g6
(g10
g77
tp2676
Rp2677
g6
(g10
g302
tp2678
Rp2679
g6
(g10
g759
tp2680
Rp2681
tp2682
I01
s(g6
(g10
g2536
tp2683
Rp2684
g6
(g10
g1518
tp2685
Rp2686
g6
(g10
g1831
tp2687
Rp2688
tp2689
I01
s(g6
(g10
g188
tp2690
Rp2691
g6
(g10
g136
tp2692
Rp2693
g6
(g10
g222
tp2694
Rp2695
tp2696
I01
s(g6
(g10
g136
tp2697
Rp2698
g6
(g10
g627
tp2699
Rp2700
g6
(g10
g1285
tp2701
Rp2702
tp2703
I01
s(g6
(g10
g95
tp2704
Rp2705
g6
(g10
g311
tp2706
Rp2707
g6
(g10
g2175
tp2708
Rp2709
tp2710
I01
s(g6
(g10
S'\xff'
p2711
tp2712
Rp2713
g6
(g10
g2711
tp2714
Rp2715
g6
(g10
g2711
tp2716
Rp2717
tp2718
I01
s(g6
(g10
g13
tp2719
Rp2720
g6
(g10
g376
tp2721
Rp2722
g6
(g10
g841
tp2723
Rp2724
tp2725
I01
s(g6
(g10
g266
tp2726
Rp2727
g6
(g10
g280
tp2728
Rp2729
g6
(g10
g62
tp2730
Rp2731
tp2732
I01
s(g6
(g10
g95
tp2733
Rp2734
g6
(g10
g13
tp2735
Rp2736
g6
(g10
g52
tp2737
Rp2738
tp2739
I01
s(g6
(g10
g42
tp2740
Rp2741
g6
(g10
g136
tp2742
Rp2743
g6
(g10
g1033
tp2744
Rp2745
tp2746
I01
s(g6
(g10
g52
tp2747
Rp2748
g6
(g10
g340
tp2749
Rp2750
g6
(g10
g1168
tp2751
Rp2752
tp2753
I01
s(g6
(g10
g136
tp2754
Rp2755
g6
(g10
g525
tp2756
Rp2757
g6
(g10
g802
tp2758
Rp2759
tp2760
I01
s(g6
(g10
g52
tp2761
Rp2762
g6
(g10
g25
tp2763
Rp2764
g6
(g10
g493
tp2765
Rp2766
tp2767
I01
s(g6
(g10
g209
tp2768
Rp2769
g6
(g10
g19
tp2770
Rp2771
g6
(g10
g536
tp2772
Rp2773
tp2774
I01
s(g6
(g10
g52
tp2775
Rp2776
g6
(g10
g172
tp2777
Rp2778
g6
(g10
g2558
tp2779
Rp2780
tp2781
I01
s(g6
(g10
g136
tp2782
Rp2783
g6
(g10
g280
tp2784
Rp2785
g6
(g10
g77
tp2786
Rp2787
tp2788
I01
s(g6
(g10
g774
tp2789
Rp2790
g6
(g10
g337
tp2791
Rp2792
g6
(g10
g253
tp2793
Rp2794
tp2795
I01
s(g6
(g10
g95
tp2796
Rp2797
g6
(g10
g28
tp2798
Rp2799
g6
(g10
g259
tp2800
Rp2801
tp2802
I01
s(g6
(g10
g13
tp2803
Rp2804
g6
(g10
g1176
tp2805
Rp2806
g6
(g10
g422
tp2807
Rp2808
tp2809
I01
s(g6
(g10
g136
tp2810
Rp2811
g6
(g10
g413
tp2812
Rp2813
g6
(g10
S'\xda'
p2814
tp2815
Rp2816
tp2817
I01
s(g6
(g10
g95
tp2818
Rp2819
g6
(g10
g759
tp2820
Rp2821
g6
(g10
g1011
tp2822
Rp2823
tp2824
I01
s(g6
(g10
g95
tp2825
Rp2826
g6
(g10
g533
tp2827
Rp2828
g6
(g10
g52
tp2829
Rp2830
tp2831
I01
s(g6
(g10
g42
tp2832
Rp2833
g6
(g10
g71
tp2834
Rp2835
g6
(g10
g1984
tp2836
Rp2837
tp2838
I01
s(g6
(g10
g188
tp2839
Rp2840
g6
(g10
g52
tp2841
Rp2842
g6
(g10
g1108
tp2843
Rp2844
tp2845
I01
s(g6
(g10
g232
tp2846
Rp2847
g6
(g10
g624
tp2848
Rp2849
g6
(g10
g253
tp2850
Rp2851
tp2852
I01
s(g6
(g10
g95
tp2853
Rp2854
g6
(g10
g269
tp2855
Rp2856
g6
(g10
S'J'
p2857
tp2858
Rp2859
tp2860
I01
s(g6
(g10
g232
tp2861
Rp2862
g6
(g10
g384
tp2863
Rp2864
g6
(g10
g467
tp2865
Rp2866
tp2867
I01
s(g6
(g10
g52
tp2868
Rp2869
g6
(g10
g573
tp2870
Rp2871
g6
(g10
g25
tp2872
Rp2873
tp2874
I01
s(g6
(g10
g52
tp2875
Rp2876
g6
(g10
g885
tp2877
Rp2878
g6
(g10
g445
tp2879
Rp2880
tp2881
I01
s(g6
(g10
g266
tp2882
Rp2883
g6
(g10
g557
tp2884
Rp2885
g6
(g10
g302
tp2886
Rp2887
tp2888
I01
s(g6
(g10
g105
tp2889
Rp2890
g6
(g10
g340
tp2891
Rp2892
g6
(g10
g193
tp2893
Rp2894
tp2895
I01
s(g6
(g10
g13
tp2896
Rp2897
g6
(g10
g48
tp2898
Rp2899
g6
(g10
S'F'
p2900
tp2901
Rp2902
tp2903
I01
s(g6
(g10
g188
tp2904
Rp2905
g6
(g10
g320
tp2906
Rp2907
g6
(g10
g136
tp2908
Rp2909
tp2910
I01
s(g6
(g10
g52
tp2911
Rp2912
g6
(g10
g716
tp2913
Rp2914
g6
(g10
g1003
tp2915
Rp2916
tp2917
I01
s(g6
(g10
g266
tp2918
Rp2919
g6
(g10
g127
tp2920
Rp2921
g6
(g10
g158
tp2922
Rp2923
tp2924
I01
s(g6
(g10
g32
tp2925
Rp2926
g6
(g10
g1048
tp2927
Rp2928
g6
(g10
g218
tp2929
Rp2930
tp2931
I01
s(g6
(g10
g136
tp2932
Rp2933
g6
(g10
g419
tp2934
Rp2935
g6
(g10
g2084
tp2936
Rp2937
tp2938
I01
s(g6
(g10
g105
tp2939
Rp2940
g6
(g10
g25
tp2941
Rp2942
g6
(g10
g1489
tp2943
Rp2944
tp2945
I01
s(g6
(g10
g77
tp2946
Rp2947
g6
(g10
g155
tp2948
Rp2949
g6
(g10
g719
tp2950
Rp2951
tp2952
I01
s(g6
(g10
g136
tp2953
Rp2954
g6
(g10
g337
tp2955
Rp2956
g6
(g10
S'\xdf'
p2957
tp2958
Rp2959
tp2960
I01
s(g6
(g10
g105
tp2961
Rp2962
g6
(g10
g1063
tp2963
Rp2964
g6
(g10
S'\xb6'
p2965
tp2966
Rp2967
tp2968
I01
s(g6
(g10
g52
tp2969
Rp2970
g6
(g10
g493
tp2971
Rp2972
g6
(g10
g885
tp2973
Rp2974
tp2975
I01
s(g6
(g10
g136
tp2976
Rp2977
g6
(g10
g146
tp2978
Rp2979
g6
(g10
g184
tp2980
Rp2981
tp2982
I01
s(g6
(g10
g13
tp2983
Rp2984
g6
(g10
g314
tp2985
Rp2986
g6
(g10
g62
tp2987
Rp2988
tp2989
I01
s(g6
(g10
g105
tp2990
Rp2991
g6
(g10
g314
tp2992
Rp2993
g6
(g10
g280
tp2994
Rp2995
tp2996
I01
s(g6
(g10
g13
tp2997
Rp2998
g6
(g10
g127
tp2999
Rp3000
g6
(g10
g80
tp3001
Rp3002
tp3003
I01
s(g6
(g10
g95
tp3004
Rp3005
g6
(g10
g885
tp3006
Rp3007
g6
(g10
g487
tp3008
Rp3009
tp3010
I01
s(g6
(g10
g95
tp3011
Rp3012
g6
(g10
g1176
tp3013
Rp3014
g6
(g10
g88
tp3015
Rp3016
tp3017
I01
s(g6
(g10
g13
tp3018
Rp3019
g6
(g10
g105
tp3020
Rp3021
g6
(g10
g872
tp3022
Rp3023
tp3024
I01
s(g6
(g10
g52
tp3025
Rp3026
g6
(g10
g493
tp3027
Rp3028
g6
(g10
g939
tp3029
Rp3030
tp3031
I01
s(g6
(g10
g188
tp3032
Rp3033
g6
(g10
g331
tp3034
Rp3035
g6
(g10
g1205
tp3036
Rp3037
tp3038
I01
s(g6
(g10
g188
tp3039
Rp3040
g6
(g10
g484
tp3041
Rp3042
g6
(g10
S'4'
p3043
tp3044
Rp3045
tp3046
I01
s(g6
(g10
g136
tp3047
Rp3048
g6
(g10
g1063
tp3049
Rp3050
g6
(g10
g744
tp3051
Rp3052
tp3053
I01
s(g6
(g10
g95
tp3054
Rp3055
g6
(g10
g146
tp3056
Rp3057
g6
(g10
g1856
tp3058
Rp3059
tp3060
I01
s(g6
(g10
g774
tp3061
Rp3062
g6
(g10
g413
tp3063
Rp3064
g6
(g10
g2084
tp3065
Rp3066
tp3067
I01
s(g6
(g10
g52
tp3068
Rp3069
g6
(g10
g80
tp3070
Rp3071
g6
(g10
S'\xd3'
p3072
tp3073
Rp3074
tp3075
I01
s(g6
(g10
g188
tp3076
Rp3077
g6
(g10
g864
tp3078
Rp3079
g6
(g10
g222
tp3080
Rp3081
tp3082
I01
s(g6
(g10
g42
tp3083
Rp3084
g6
(g10
g744
tp3085
Rp3086
g6
(g10
g91
tp3087
Rp3088
tp3089
I01
s(g6
(g10
g13
tp3090
Rp3091
g6
(g10
g476
tp3092
Rp3093
g6
(g10
S'P'
p3094
tp3095
Rp3096
tp3097
I01
s(g6
(g10
g169
tp3098
Rp3099
g6
(g10
g95
tp3100
Rp3101
g6
(g10
g774
tp3102
Rp3103
tp3104
I01
s(g6
(g10
g52
tp3105
Rp3106
g6
(g10
g280
tp3107
Rp3108
g6
(g10
g215
tp3109
Rp3110
tp3111
I01
s(g6
(g10
g95
tp3112
Rp3113
g6
(g10
g484
tp3114
Rp3115
g6
(g10
g88
tp3116
Rp3117
tp3118
I01
s(g6
(g10
g169
tp3119
Rp3120
g6
(g10
g484
tp3121
Rp3122
g6
(g10
g573
tp3123
Rp3124
tp3125
I01
s(g6
(g10
g95
tp3126
Rp3127
g6
(g10
g467
tp3128
Rp3129
g6
(g10
g188
tp3130
Rp3131
tp3132
I01
s(g6
(g10
g188
tp3133
Rp3134
g6
(g10
g413
tp3135
Rp3136
g6
(g10
g3043
tp3137
Rp3138
tp3139
I01
s(g6
(g10
g42
tp3140
Rp3141
g6
(g10
g181
tp3142
Rp3143
g6
(g10
g437
tp3144
Rp3145
tp3146
I01
s(g6
(g10
g42
tp3147
Rp3148
g6
(g10
g517
tp3149
Rp3150
g6
(g10
g2558
tp3151
Rp3152
tp3153
I01
s(g6
(g10
g105
tp3154
Rp3155
g6
(g10
g62
tp3156
Rp3157
g6
(g10
g1205
tp3158
Rp3159
tp3160
I01
s(g6
(g10
g105
tp3161
Rp3162
g6
(g10
g136
tp3163
Rp3164
g6
(g10
g762
tp3165
Rp3166
tp3167
I01
s(g6
(g10
g95
tp3168
Rp3169
g6
(g10
g101
tp3170
Rp3171
g6
(g10
g777
tp3172
Rp3173
tp3174
I01
s(g6
(g10
g136
tp3175
Rp3176
g6
(g10
g71
tp3177
Rp3178
g6
(g10
g237
tp3179
Rp3180
tp3181
I01
s(g6
(g10
g136
tp3182
Rp3183
g6
(g10
g62
tp3184
Rp3185
g6
(g10
g105
tp3186
Rp3187
tp3188
I01
s(g6
(g10
g143
tp3189
Rp3190
g6
(g10
g573
tp3191
Rp3192
g6
(g10
g245
tp3193
Rp3194
tp3195
I01
s(g6
(g10
g13
tp3196
Rp3197
g6
(g10
g733
tp3198
Rp3199
g6
(g10
g502
tp3200
Rp3201
tp3202
I01
s(g6
(g10
g13
tp3203
Rp3204
g6
(g10
g484
tp3205
Rp3206
g6
(g10
g422
tp3207
Rp3208
tp3209
I01
s(g6
(g10
g105
tp3210
Rp3211
g6
(g10
g467
tp3212
Rp3213
g6
(g10
g1489
tp3214
Rp3215
tp3216
I01
s(g6
(g10
g105
tp3217
Rp3218
g6
(g10
g376
tp3219
Rp3220
g6
(g10
g320
tp3221
Rp3222
tp3223
I01
s(g6
(g10
g52
tp3224
Rp3225
g6
(g10
g627
tp3226
Rp3227
g6
(g10
g65
tp3228
Rp3229
tp3230
I01
s(g6
(g10
g774
tp3231
Rp3232
g6
(g10
g19
tp3233
Rp3234
g6
(g10
g2084
tp3235
Rp3236
tp3237
I01
s(g6
(g10
g188
tp3238
Rp3239
g6
(g10
g181
tp3240
Rp3241
g6
(g10
g130
tp3242
Rp3243
tp3244
I01
s(g6
(g10
g77
tp3245
Rp3246
g6
(g10
g493
tp3247
Rp3248
g6
(g10
g139
tp3249
Rp3250
tp3251
I01
s(g6
(g10
g13
tp3252
Rp3253
g6
(g10
g502
tp3254
Rp3255
g6
(g10
g272
tp3256
Rp3257
tp3258
I01
s(g6
(g10
g105
tp3259
Rp3260
g6
(g10
g533
tp3261
Rp3262
g6
(g10
g2464
tp3263
Rp3264
tp3265
I01
s(g6
(g10
g77
tp3266
Rp3267
g6
(g10
g71
tp3268
Rp3269
g6
(g10
g777
tp3270
Rp3271
tp3272
I01
s(g6
(g10
g136
tp3273
Rp3274
g6
(g10
g62
tp3275
Rp3276
g6
(g10
g2957
tp3277
Rp3278
tp3279
I01
s(g6
(g10
g209
tp3280
Rp3281
g6
(g10
g453
tp3282
Rp3283
g6
(g10
g536
tp3284
Rp3285
tp3286
I01
s(g6
(g10
g136
tp3287
Rp3288
g6
(g10
g88
tp3289
Rp3290
g6
(g10
g750
tp3291
Rp3292
tp3293
I01
s(g6
(g10
g1160
tp3294
Rp3295
g6
(g10
g2658
tp3296
Rp3297
g6
(g10
S'v'
p3298
tp3299
Rp3300
tp3301
I01
s(g6
(g10
g232
tp3302
Rp3303
g6
(g10
g146
tp3304
Rp3305
g6
(g10
g232
tp3306
Rp3307
tp3308
I01
s(g6
(g10
g105
tp3309
Rp3310
g6
(g10
g864
tp3311
Rp3312
g6
(g10
g1340
tp3313
Rp3314
tp3315
I01
s(g6
(g10
g136
tp3316
Rp3317
g6
(g10
g302
tp3318
Rp3319
g6
(g10
g340
tp3320
Rp3321
tp3322
I01
s(g6
(g10
g95
tp3323
Rp3324
g6
(g10
g127
tp3325
Rp3326
g6
(g10
g1711
tp3327
Rp3328
tp3329
I01
s(g6
(g10
g136
tp3330
Rp3331
g6
(g10
g716
tp3332
Rp3333
g6
(g10
g1123
tp3334
Rp3335
tp3336
I01
s(g6
(g10
g13
tp3337
Rp3338
g6
(g10
S'\xe5'
p3339
tp3340
Rp3341
g6
(g10
S'\x19'
p3342
tp3343
Rp3344
tp3345
I01
s(g6
(g10
g188
tp3346
Rp3347
g6
(g10
g410
tp3348
Rp3349
g6
(g10
g201
tp3350
Rp3351
tp3352
I01
s(g6
(g10
g95
tp3353
Rp3354
g6
(g10
g376
tp3355
Rp3356
g6
(g10
g643
tp3357
Rp3358
tp3359
I01
s(g6
(g10
g105
tp3360
Rp3361
g6
(g10
g48
tp3362
Rp3363
g6
(g10
g155
tp3364
Rp3365
tp3366
I01
s(g6
(g10
g52
tp3367
Rp3368
g6
(g10
g314
tp3369
Rp3370
g6
(g10
g209
tp3371
Rp3372
tp3373
I01
s(g6
(g10
g52
tp3374
Rp3375
g6
(g10
g533
tp3376
Rp3377
g6
(g10
g939
tp3378
Rp3379
tp3380
I01
s(g6
(g10
g105
tp3381
Rp3382
g6
(g10
g744
tp3383
Rp3384
g6
(g10
g193
tp3385
Rp3386
tp3387
I01
s(g6
(g10
g774
tp3388
Rp3389
g6
(g10
g331
tp3390
Rp3391
g6
(g10
g802
tp3392
Rp3393
tp3394
I01
s(g6
(g10
g95
tp3395
Rp3396
g6
(g10
g337
tp3397
Rp3398
g6
(g10
g404
tp3399
Rp3400
tp3401
I01
s(g6
(g10
g13
tp3402
Rp3403
g6
(g10
g885
tp3404
Rp3405
g6
(g10
g2162
tp3406
Rp3407
tp3408
I01
s(g6
(g10
g95
tp3409
Rp3410
g6
(g10
g671
tp3411
Rp3412
g6
(g10
g727
tp3413
Rp3414
tp3415
I01
s(g6
(g10
g774
tp3416
Rp3417
g6
(g10
g88
tp3418
Rp3419
g6
(g10
g77
tp3420
Rp3421
tp3422
I01
s(g6
(g10
g77
tp3423
Rp3424
g6
(g10
g419
tp3425
Rp3426
g6
(g10
g396
tp3427
Rp3428
tp3429
I01
s(g6
(g10
g32
tp3430
Rp3431
g6
(g10
g627
tp3432
Rp3433
g6
(g10
g346
tp3434
Rp3435
tp3436
I01
s(g6
(g10
g266
tp3437
Rp3438
g6
(g10
g48
tp3439
Rp3440
g6
(g10
g3094
tp3441
Rp3442
tp3443
I01
s(g6
(g10
g266
tp3444
Rp3445
g6
(g10
g627
tp3446
Rp3447
g6
(g10
g551
tp3448
Rp3449
tp3450
I01
s(g6
(g10
g136
tp3451
Rp3452
g6
(g10
g533
tp3453
Rp3454
g6
(g10
g2814
tp3455
Rp3456
tp3457
I01
s(g6
(g10
g105
tp3458
Rp3459
g6
(g10
g48
tp3460
Rp3461
g6
(g10
g320
tp3462
Rp3463
tp3464
I01
s(g6
(g10
g105
tp3465
Rp3466
g6
(g10
g533
tp3467
Rp3468
g6
(g10
g525
tp3469
Rp3470
tp3471
I01
s(g6
(g10
g13
tp3472
Rp3473
g6
(g10
g453
tp3474
Rp3475
g6
(g10
g736
tp3476
Rp3477
tp3478
I01
s(g6
(g10
g95
tp3479
Rp3480
g6
(g10
g155
tp3481
Rp3482
g6
(g10
g413
tp3483
Rp3484
tp3485
I01
s(g6
(g10
g136
tp3486
Rp3487
g6
(g10
g259
tp3488
Rp3489
g6
(g10
g2957
tp3490
Rp3491
tp3492
I01
s(g6
(g10
g105
tp3493
Rp3494
g6
(g10
g557
tp3495
Rp3496
g6
(g10
g1108
tp3497
Rp3498
tp3499
I01
s(g6
(g10
g136
tp3500
Rp3501
g6
(g10
g533
tp3502
Rp3503
g6
(g10
g750
tp3504
Rp3505
tp3506
I01
s(g6
(g10
g169
tp3507
Rp3508
g6
(g10
g314
tp3509
Rp3510
g6
(g10
g413
tp3511
Rp3512
tp3513
I01
s(g6
(g10
g209
tp3514
Rp3515
g6
(g10
g533
tp3516
Rp3517
g6
(g10
g422
tp3518
Rp3519
tp3520
I01
s(g6
(g10
g136
tp3521
Rp3522
g6
(g10
g269
tp3523
Rp3524
g6
(g10
g118
tp3525
Rp3526
tp3527
I01
s(g6
(g10
g169
tp3528
Rp3529
g6
(g10
g830
tp3530
Rp3531
g6
(g10
g777
tp3532
Rp3533
tp3534
I01
s(g6
(g10
g136
tp3535
Rp3536
g6
(g10
g484
tp3537
Rp3538
g6
(g10
g2206
tp3539
Rp3540
tp3541
I01
s(g6
(g10
g42
tp3542
Rp3543
g6
(g10
g108
tp3544
Rp3545
g6
(g10
g48
tp3546
Rp3547
tp3548
I01
s(g6
(g10
g52
tp3549
Rp3550
g6
(g10
g35
tp3551
Rp3552
g6
(g10
g346
tp3553
Rp3554
tp3555
I01
s(g6
(g10
g143
tp3556
Rp3557
g6
(g10
g533
tp3558
Rp3559
g6
(g10
g1293
tp3560
Rp3561
tp3562
I01
s(g6
(g10
g95
tp3563
Rp3564
g6
(g10
g384
tp3565
Rp3566
g6
(g10
g259
tp3567
Rp3568
tp3569
I01
s(g6
(g10
g232
tp3570
Rp3571
g6
(g10
g410
tp3572
Rp3573
g6
(g10
S'\x08'
p3574
tp3575
Rp3576
tp3577
I01
s(g6
(g10
g209
tp3578
Rp3579
g6
(g10
g419
tp3580
Rp3581
g6
(g10
g2162
tp3582
Rp3583
tp3584
I01
s(g6
(g10
g136
tp3585
Rp3586
g6
(g10
g172
tp3587
Rp3588
g6
(g10
g237
tp3589
Rp3590
tp3591
I01
s(g6
(g10
g95
tp3592
Rp3593
g6
(g10
g155
tp3594
Rp3595
g6
(g10
g337
tp3596
Rp3597
tp3598
I01
s(g6
(g10
g774
tp3599
Rp3600
g6
(g10
g95
tp3601
Rp3602
g6
(g10
g802
tp3603
Rp3604
tp3605
I01
s(g6
(g10
g266
tp3606
Rp3607
g6
(g10
g172
tp3608
Rp3609
g6
(g10
g658
tp3610
Rp3611
tp3612
I01
s(g6
(g10
g105
tp3613
Rp3614
g6
(g10
g101
tp3615
Rp3616
g6
(g10
g1108
tp3617
Rp3618
tp3619
I01
s(g6
(g10
g95
tp3620
Rp3621
g6
(g10
g337
tp3622
Rp3623
g6
(g10
S'\xc2'
p3624
tp3625
Rp3626
tp3627
I01
s(g6
(g10
g13
tp3628
Rp3629
g6
(g10
g28
tp3630
Rp3631
g6
(g10
g1048
tp3632
Rp3633
tp3634
I01
s(g6
(g10
g105
tp3635
Rp3636
g6
(g10
g146
tp3637
Rp3638
g6
(g10
g130
tp3639
Rp3640
tp3641
I01
s(g6
(g10
g105
tp3642
Rp3643
g6
(g10
g184
tp3644
Rp3645
g6
(g10
g762
tp3646
Rp3647
tp3648
I01
s(g6
(g10
g136
tp3649
Rp3650
g6
(g10
g476
tp3651
Rp3652
g6
(g10
g467
tp3653
Rp3654
tp3655
I01
s(g6
(g10
g52
tp3656
Rp3657
g6
(g10
g155
tp3658
Rp3659
g6
(g10
g1984
tp3660
Rp3661
tp3662
I01
s(g6
(g10
g232
tp3663
Rp3664
g6
(g10
g671
tp3665
Rp3666
g6
(g10
g467
tp3667
Rp3668
tp3669
I01
s(g6
(g10
g136
tp3670
Rp3671
g6
(g10
g384
tp3672
Rp3673
g6
(g10
S'\xbc'
p3674
tp3675
Rp3676
tp3677
I01
s(g6
(g10
g105
tp3678
Rp3679
g6
(g10
g52
tp3680
Rp3681
g6
(g10
g410
tp3682
Rp3683
tp3684
I01
s(g6
(g10
g13
tp3685
Rp3686
g6
(g10
g259
tp3687
Rp3688
g6
(g10
g2427
tp3689
Rp3690
tp3691
I01
s(g6
(g10
g105
tp3692
Rp3693
g6
(g10
g280
tp3694
Rp3695
g6
(g10
g1293
tp3696
Rp3697
tp3698
I01
s(g6
(g10
g188
tp3699
Rp3700
g6
(g10
g296
tp3701
Rp3702
g6
(g10
g1719
tp3703
Rp3704
tp3705
I01
s(g6
(g10
g95
tp3706
Rp3707
g6
(g10
g525
tp3708
Rp3709
g6
(g10
g774
tp3710
Rp3711
tp3712
I01
s(g6
(g10
g188
tp3713
Rp3714
g6
(g10
g146
tp3715
Rp3716
g6
(g10
g280
tp3717
Rp3718
tp3719
I01
s(g6
(g10
g136
tp3720
Rp3721
g6
(g10
g573
tp3722
Rp3723
g6
(g10
g924
tp3724
Rp3725
tp3726
I01
s(g6
(g10
g136
tp3727
Rp3728
g6
(g10
g80
tp3729
Rp3730
g6
(g10
g716
tp3731
Rp3732
tp3733
I01
s(g6
(g10
g52
tp3734
Rp3735
g6
(g10
g733
tp3736
Rp3737
g6
(g10
g1518
tp3738
Rp3739
tp3740
I01
s(g6
(g10
g52
tp3741
Rp3742
g6
(g10
g181
tp3743
Rp3744
g6
(g10
S'\xc4'
p3745
tp3746
Rp3747
tp3748
I01
s(g6
(g10
g188
tp3749
Rp3750
g6
(g10
g733
tp3751
Rp3752
g6
(g10
g331
tp3753
Rp3754
tp3755
I01
s(g6
(g10
g209
tp3756
Rp3757
g6
(g10
g759
tp3758
Rp3759
g6
(g10
g2162
tp3760
Rp3761
tp3762
I01
s(g6
(g10
g77
tp3763
Rp3764
g6
(g10
g340
tp3765
Rp3766
g6
(g10
g88
tp3767
Rp3768
tp3769
I01
s(g6
(g10
g42
tp3770
Rp3771
g6
(g10
g624
tp3772
Rp3773
g6
(g10
g65
tp3774
Rp3775
tp3776
I01
s(g6
(g10
g95
tp3777
Rp3778
g6
(g10
g393
tp3779
Rp3780
g6
(g10
g2320
tp3781
Rp3782
tp3783
I01
s(g6
(g10
g95
tp3784
Rp3785
g6
(g10
g293
tp3786
Rp3787
g6
(g10
g175
tp3788
Rp3789
tp3790
I01
s(g6
(g10
g52
tp3791
Rp3792
g6
(g10
g517
tp3793
Rp3794
g6
(g10
g209
tp3795
Rp3796
tp3797
I01
s(g6
(g10
g143
tp3798
Rp3799
g6
(g10
g557
tp3800
Rp3801
g6
(g10
g1205
tp3802
Rp3803
tp3804
I01
s(g6
(g10
g136
tp3805
Rp3806
g6
(g10
g525
tp3807
Rp3808
g6
(g10
g2957
tp3809
Rp3810
tp3811
I01
s(g6
(g10
g232
tp3812
Rp3813
g6
(g10
g80
tp3814
Rp3815
g6
(g10
S'\xa3'
p3816
tp3817
Rp3818
tp3819
I01
s(g6
(g10
g42
tp3820
Rp3821
g6
(g10
g48
tp3822
Rp3823
g6
(g10
g453
tp3824
Rp3825
tp3826
I01
s(g6
(g10
g169
tp3827
Rp3828
g6
(g10
g146
tp3829
Rp3830
g6
(g10
g1575
tp3831
Rp3832
tp3833
I01
s(g6
(g10
g42
tp3834
Rp3835
g6
(g10
g777
tp3836
Rp3837
g6
(g10
g121
tp3838
Rp3839
tp3840
I01
s(g6
(g10
g266
tp3841
Rp3842
g6
(g10
g105
tp3843
Rp3844
g6
(g10
g1343
tp3845
Rp3846
tp3847
I01
s(g6
(g10
g136
tp3848
Rp3849
g6
(g10
g16
tp3850
Rp3851
g6
(g10
g232
tp3852
Rp3853
tp3854
I01
s(g6
(g10
g95
tp3855
Rp3856
g6
(g10
g864
tp3857
Rp3858
g6
(g10
g1711
tp3859
Rp3860
tp3861
I01
s(g6
(g10
g77
tp3862
Rp3863
g6
(g10
g517
tp3864
Rp3865
g6
(g10
g413
tp3866
Rp3867
tp3868
I01
s(g6
(g10
g13
tp3869
Rp3870
g6
(g10
g181
tp3871
Rp3872
g6
(g10
g1481
tp3873
Rp3874
tp3875
I01
s(g6
(g10
g95
tp3876
Rp3877
g6
(g10
g95
tp3878
Rp3879
g6
(g10
g719
tp3880
Rp3881
tp3882
I01
s(g6
(g10
g95
tp3883
Rp3884
g6
(g10
g108
tp3885
Rp3886
g6
(g10
g98
tp3887
Rp3888
tp3889
I01
s(g6
(g10
g136
tp3890
Rp3891
g6
(g10
g320
tp3892
Rp3893
g6
(g10
g118
tp3894
Rp3895
tp3896
I01
s(g6
(g10
g105
tp3897
Rp3898
g6
(g10
g517
tp3899
Rp3900
g6
(g10
g222
tp3901
Rp3902
tp3903
I01
s(g6
(g10
g52
tp3904
Rp3905
g6
(g10
g269
tp3906
Rp3907
g6
(g10
g1168
tp3908
Rp3909
tp3910
I01
s(g6
(g10
g105
tp3911
Rp3912
g6
(g10
g320
tp3913
Rp3914
g6
(g10
g269
tp3915
Rp3916
tp3917
I01
s(g6
(g10
g52
tp3918
Rp3919
g6
(g10
g13
tp3920
Rp3921
g6
(g10
g91
tp3922
Rp3923
tp3924
I01
s(g6
(g10
g774
tp3925
Rp3926
g6
(g10
g16
tp3927
Rp3928
g6
(g10
g924
tp3929
Rp3930
tp3931
I01
s(g6
(g10
g13
tp3932
Rp3933
g6
(g10
g45
tp3934
Rp3935
g6
(g10
g689
tp3936
Rp3937
tp3938
I01
s(g6
(g10
g136
tp3939
Rp3940
g6
(g10
g269
tp3941
Rp3942
g6
(g10
g323
tp3943
Rp3944
tp3945
I01
s(g6
(g10
g169
tp3946
Rp3947
g6
(g10
g517
tp3948
Rp3949
g6
(g10
g1575
tp3950
Rp3951
tp3952
I01
s(g6
(g10
g95
tp3953
Rp3954
g6
(g10
g172
tp3955
Rp3956
g6
(g10
S'\xdb'
p3957
tp3958
Rp3959
tp3960
I01
s(g6
(g10
g105
tp3961
Rp3962
g6
(g10
g413
tp3963
Rp3964
g6
(g10
g269
tp3965
Rp3966
tp3967
I01
s(g6
(g10
g232
tp3968
Rp3969
g6
(g10
g502
tp3970
Rp3971
g6
(g10
g77
tp3972
Rp3973
tp3974
I01
s(g6
(g10
g52
tp3975
Rp3976
g6
(g10
g48
tp3977
Rp3978
g6
(g10
g2058
tp3979
Rp3980
tp3981
I01
s(g6
(g10
g52
tp3982
Rp3983
g6
(g10
g215
tp3984
Rp3985
g6
(g10
g3072
tp3986
Rp3987
tp3988
I01
s(g6
(g10
g13
tp3989
Rp3990
g6
(g10
g502
tp3991
Rp3992
g6
(g10
g1611
tp3993
Rp3994
tp3995
I01
s(g6
(g10
g42
tp3996
Rp3997
g6
(g10
g476
tp3998
Rp3999
g6
(g10
g493
tp4000
Rp4001
tp4002
I01
s(g6
(g10
g169
tp4003
Rp4004
g6
(g10
g340
tp4005
Rp4006
g6
(g10
g1445
tp4007
Rp4008
tp4009
I01
s(g6
(g10
g13
tp4010
Rp4011
g6
(g10
g88
tp4012
Rp4013
g6
(g10
g272
tp4014
Rp4015
tp4016
I01
s(g6
(g10
g42
tp4017
Rp4018
g6
(g10
g864
tp4019
Rp4020
g6
(g10
g437
tp4021
Rp4022
tp4023
I01
s(g6
(g10
g136
tp4024
Rp4025
g6
(g10
g733
tp4026
Rp4027
g6
(g10
g323
tp4028
Rp4029
tp4030
I01
s(g6
(g10
g188
tp4031
Rp4032
g6
(g10
g314
tp4033
Rp4034
g6
(g10
g149
tp4035
Rp4036
tp4037
I01
s(g6
(g10
g136
tp4038
Rp4039
g6
(g10
g627
tp4040
Rp4041
g6
(g10
g253
tp4042
Rp4043
tp4044
I01
s(g6
(g10
g105
tp4045
Rp4046
g6
(g10
g16
tp4047
Rp4048
g6
(g10
g108
tp4049
Rp4050
tp4051
I01
s(g6
(g10
g13
tp4052
Rp4053
g6
(g10
g413
tp4054
Rp4055
g6
(g10
g536
tp4056
Rp4057
tp4058
I01
s(g6
(g10
g105
tp4059
Rp4060
g6
(g10
g105
tp4061
Rp4062
g6
(g10
g387
tp4063
Rp4064
tp4065
I01
s(g6
(g10
g13
tp4066
Rp4067
g6
(g10
g296
tp4068
Rp4069
g6
(g10
g2658
tp4070
Rp4071
tp4072
I01
s(g6
(g10
g169
tp4073
Rp4074
g6
(g10
g311
tp4075
Rp4076
g6
(g10
g396
tp4077
Rp4078
tp4079
I01
s(g6
(g10
g52
tp4080
Rp4081
g6
(g10
g1048
tp4082
Rp4083
g6
(g10
g493
tp4084
Rp4085
tp4086
I01
s(g6
(g10
g13
tp4087
Rp4088
g6
(g10
g101
tp4089
Rp4090
g6
(g10
g681
tp4091
Rp4092
tp4093
I01
s(g6
(g10
g232
tp4094
Rp4095
g6
(g10
g296
tp4096
Rp4097
g6
(g10
g3574
tp4098
Rp4099
tp4100
I01
s(g6
(g10
g13
tp4101
Rp4102
g6
(g10
g759
tp4103
Rp4104
g6
(g10
g143
tp4105
Rp4106
tp4107
I01
s(g6
(g10
g232
tp4108
Rp4109
g6
(g10
g716
tp4110
Rp4111
g6
(g10
g2957
tp4112
Rp4113
tp4114
I01
s(g6
(g10
g13
tp4115
Rp4116
g6
(g10
g181
tp4117
Rp4118
g6
(g10
g2162
tp4119
Rp4120
tp4121
I01
s(g6
(g10
g95
tp4122
Rp4123
g6
(g10
g733
tp4124
Rp4125
g6
(g10
g2221
tp4126
Rp4127
tp4128
I01
s(g6
(g10
g209
tp4129
Rp4130
g6
(g10
g172
tp4131
Rp4132
g6
(g10
g525
tp4133
Rp4134
tp4135
I01
s(g6
(g10
g105
tp4136
Rp4137
g6
(g10
g467
tp4138
Rp4139
g6
(g10
g2479
tp4140
Rp4141
tp4142
I01
s(g6
(g10
g188
tp4143
Rp4144
g6
(g10
g777
tp4145
Rp4146
g6
(g10
g1654
tp4147
Rp4148
tp4149
I01
s(g6
(g10
g136
tp4150
Rp4151
g6
(g10
g146
tp4152
Rp4153
g6
(g10
S'X'
p4154
tp4155
Rp4156
tp4157
I01
s(g6
(g10
g136
tp4158
Rp4159
g6
(g10
g13
tp4160
Rp4161
g6
(g10
g3816
tp4162
Rp4163
tp4164
I01
s(g6
(g10
g13
tp4165
Rp4166
g6
(g10
g410
tp4167
Rp4168
g6
(g10
S'_'
p4169
tp4170
Rp4171
tp4172
I01
s(g6
(g10
g42
tp4173
Rp4174
g6
(g10
g733
tp4175
Rp4176
g6
(g10
g38
tp4177
Rp4178
tp4179
I01
s(g6
(g10
g232
tp4180
Rp4181
g6
(g10
g533
tp4182
Rp4183
g6
(g10
g496
tp4184
Rp4185
tp4186
I01
s(g6
(g10
g232
tp4187
Rp4188
g6
(g10
g35
tp4189
Rp4190
g6
(g10
g744
tp4191
Rp4192
tp4193
I01
s(g6
(g10
g105
tp4194
Rp4195
g6
(g10
g95
tp4196
Rp4197
g6
(g10
g1205
tp4198
Rp4199
tp4200
I01
s(g6
(g10
g95
tp4201
Rp4202
g6
(g10
g184
tp4203
Rp4204
g6
(g10
g2175
tp4205
Rp4206
tp4207
I01
s(g6
(g10
g105
tp4208
Rp4209
g6
(g10
g627
tp4210
Rp4211
g6
(g10
g387
tp4212
Rp4213
tp4214
I01
s(g6
(g10
g169
tp4215
Rp4216
g6
(g10
g184
tp4217
Rp4218
g6
(g10
g139
tp4219
Rp4220
tp4221
I01
s(g6
(g10
g52
tp4222
Rp4223
g6
(g10
g346
tp4224
Rp4225
g6
(g10
g209
tp4226
Rp4227
tp4228
I01
s(g6
(g10
g13
tp4229
Rp4230
g6
(g10
g716
tp4231
Rp4232
g6
(g10
g658
tp4233
Rp4234
tp4235
I01
s(g6
(g10
g13
tp4236
Rp4237
g6
(g10
g269
tp4238
Rp4239
g6
(g10
g71
tp4240
Rp4241
tp4242
I01
s(g6
(g10
g774
tp4243
Rp4244
g6
(g10
g52
tp4245
Rp4246
g6
(g10
g3574
tp4247
Rp4248
tp4249
I01
s(g6
(g10
g188
tp4250
Rp4251
g6
(g10
g314
tp4252
Rp4253
g6
(g10
g410
tp4254
Rp4255
tp4256
I01
s(g6
(g10
g143
tp4257
Rp4258
g6
(g10
g105
tp4259
Rp4260
g6
(g10
g461
tp4261
Rp4262
tp4263
I01
s(g6
(g10
g52
tp4264
Rp4265
g6
(g10
g98
tp4266
Rp4267
g6
(g10
g48
tp4268
Rp4269
tp4270
I01
s(g6
(g10
g105
tp4271
Rp4272
g6
(g10
g733
tp4273
Rp4274
g6
(g10
g193
tp4275
Rp4276
tp4277
I01
s(g6
(g10
g105
tp4278
Rp4279
g6
(g10
g777
tp4280
Rp4281
g6
(g10
g320
tp4282
Rp4283
tp4284
I01
s(g6
(g10
g95
tp4285
Rp4286
g6
(g10
g517
tp4287
Rp4288
g6
(g10
g1856
tp4289
Rp4290
tp4291
I01
s(g6
(g10
g105
tp4292
Rp4293
g6
(g10
g376
tp4294
Rp4295
g6
(g10
g627
tp4296
Rp4297
tp4298
I01
s(g6
(g10
g105
tp4299
Rp4300
g6
(g10
g346
tp4301
Rp4302
g6
(g10
g108
tp4303
Rp4304
tp4305
I01
s(g6
(g10
g188
tp4306
Rp4307
g6
(g10
g1831
tp4308
Rp4309
g6
(g10
g320
tp4310
Rp4311
tp4312
I01
s(g6
(g10
g95
tp4313
Rp4314
g6
(g10
g777
tp4315
Rp4316
g6
(g10
g259
tp4317
Rp4318
tp4319
I01
s(g6
(g10
g95
tp4320
Rp4321
g6
(g10
g624
tp4322
Rp4323
g6
(g10
g643
tp4324
Rp4325
tp4326
I01
s(g6
(g10
g105
tp4327
Rp4328
g6
(g10
g419
tp4329
Rp4330
g6
(g10
g3043
tp4331
Rp4332
tp4333
I01
s(g6
(g10
g52
tp4334
Rp4335
g6
(g10
g453
tp4336
Rp4337
g6
(g10
g2594
tp4338
Rp4339
tp4340
I01
s(g6
(g10
g13
tp4341
Rp4342
g6
(g10
g127
tp4343
Rp4344
g6
(g10
g16
tp4345
Rp4346
tp4347
I01
s(g6
(g10
g52
tp4348
Rp4349
g6
(g10
g52
tp4350
Rp4351
g6
(g10
g1329
tp4352
Rp4353
tp4354
I01
s(g6
(g10
g13
tp4355
Rp4356
g6
(g10
g525
tp4357
Rp4358
g6
(g10
g419
tp4359
Rp4360
tp4361
I01
s(g6
(g10
g105
tp4362
Rp4363
g6
(g10
g1176
tp4364
Rp4365
g6
(g10
g3043
tp4366
Rp4367
tp4368
I01
s(g6
(g10
g105
tp4369
Rp4370
g6
(g10
g71
tp4371
Rp4372
g6
(g10
g410
tp4373
Rp4374
tp4375
I01
s(g6
(g10
g52
tp4376
Rp4377
g6
(g10
g146
tp4378
Rp4379
g6
(g10
g1033
tp4380
Rp4381
tp4382
I01
s(g6
(g10
g13
tp4383
Rp4384
g6
(g10
g410
tp4385
Rp4386
g6
(g10
g833
tp4387
Rp4388
tp4389
I01
s(g6
(g10
g136
tp4390
Rp4391
g6
(g10
g885
tp4392
Rp4393
g6
(g10
g293
tp4394
Rp4395
tp4396
I01
s(g6
(g10
g52
tp4397
Rp4398
g6
(g10
g393
tp4399
Rp4400
g6
(g10
g437
tp4401
Rp4402
tp4403
I01
s(g6
(g10
g266
tp4404
Rp4405
g6
(g10
g376
tp4406
Rp4407
g6
(g10
g3342
tp4408
Rp4409
tp4410
I01
s(g6
(g10
g95
tp4411
Rp4412
g6
(g10
g759
tp4413
Rp4414
g6
(g10
g2175
tp4415
Rp4416
tp4417
I01
s(g6
(g10
g136
tp4418
Rp4419
g6
(g10
g384
tp4420
Rp4421
g6
(g10
g253
tp4422
Rp4423
tp4424
I01
s(g6
(g10
g13
tp4425
Rp4426
g6
(g10
g52
tp4427
Rp4428
g6
(g10
g158
tp4429
Rp4430
tp4431
I01
s(g6
(g10
g105
tp4432
Rp4433
g6
(g10
g759
tp4434
Rp4435
g6
(g10
g3043
tp4436
Rp4437
tp4438
I01
s(g6
(g10
g209
tp4439
Rp4440
g6
(g10
g269
tp4441
Rp4442
g6
(g10
g536
tp4443
Rp4444
tp4445
I01
s(g6
(g10
g105
tp4446
Rp4447
g6
(g10
g393
tp4448
Rp4449
g6
(g10
g222
tp4450
Rp4451
tp4452
I01
s(g6
(g10
g95
tp4453
Rp4454
g6
(g10
g71
tp4455
Rp4456
g6
(g10
g1575
tp4457
Rp4458
tp4459
I01
s(g6
(g10
g95
tp4460
Rp4461
g6
(g10
g25
tp4462
Rp4463
g6
(g10
g2221
tp4464
Rp4465
tp4466
I01
s(g6
(g10
g52
tp4467
Rp4468
g6
(g10
g476
tp4469
Rp4470
g6
(g10
g830
tp4471
Rp4472
tp4473
I01
s(g6
(g10
g209
tp4474
Rp4475
g6
(g10
g716
tp4476
Rp4477
g6
(g10
g2427
tp4478
Rp4479
tp4480
I01
s(g6
(g10
g232
tp4481
Rp4482
g6
(g10
g467
tp4483
Rp4484
g6
(g10
g716
tp4485
Rp4486
tp4487
I01
s(g6
(g10
g32
tp4488
Rp4489
g6
(g10
g269
tp4490
Rp4491
g6
(g10
g939
tp4492
Rp4493
tp4494
I01
s(g6
(g10
g95
tp4495
Rp4496
g6
(g10
g533
tp4497
Rp4498
g6
(g10
g476
tp4499
Rp4500
tp4501
I01
s(g6
(g10
g143
tp4502
Rp4503
g6
(g10
g744
tp4504
Rp4505
g6
(g10
g525
tp4506
Rp4507
tp4508
I01
s(g6
(g10
g13
tp4509
Rp4510
g6
(g10
g777
tp4511
Rp4512
g6
(g10
g841
tp4513
Rp4514
tp4515
I01
s(g6
(g10
g32
tp4516
Rp4517
g6
(g10
g517
tp4518
Rp4519
g6
(g10
g560
tp4520
Rp4521
tp4522
I01
s(g6
(g10
g136
tp4523
Rp4524
g6
(g10
g35
tp4525
Rp4526
g6
(g10
g467
tp4527
Rp4528
tp4529
I01
s(g6
(g10
g105
tp4530
Rp4531
g6
(g10
g830
tp4532
Rp4533
g6
(g10
g849
tp4534
Rp4535
tp4536
I01
s(g6
(g10
g169
tp4537
Rp4538
g6
(g10
g259
tp4539
Rp4540
g6
(g10
g643
tp4541
Rp4542
tp4543
I01
s(g6
(g10
g232
tp4544
Rp4545
g6
(g10
g337
tp4546
Rp4547
g6
(g10
g802
tp4548
Rp4549
tp4550
I01
s(g6
(g10
g143
tp4551
Rp4552
g6
(g10
g1176
tp4553
Rp4554
g6
(g10
g1340
tp4555
Rp4556
tp4557
I01
s(g6
(g10
g209
tp4558
Rp4559
g6
(g10
g484
tp4560
Rp4561
g6
(g10
g1611
tp4562
Rp4563
tp4564
I01
s(g6
(g10
g32
tp4565
Rp4566
g6
(g10
g627
tp4567
Rp4568
g6
(g10
g493
tp4569
Rp4570
tp4571
I01
s(g6
(g10
g774
tp4572
Rp4573
g6
(g10
g45
tp4574
Rp4575
g6
(g10
g716
tp4576
Rp4577
tp4578
I01
s(g6
(g10
g136
tp4579
Rp4580
g6
(g10
g744
tp4581
Rp4582
g6
(g10
g323
tp4583
Rp4584
tp4585
I01
s(g6
(g10
g13
tp4586
Rp4587
g6
(g10
g733
tp4588
Rp4589
g6
(g10
g28
tp4590
Rp4591
tp4592
I01
s(g6
(g10
g136
tp4593
Rp4594
g6
(g10
g101
tp4595
Rp4596
g6
(g10
g3574
tp4597
Rp4598
tp4599
I01
s(g6
(g10
g188
tp4600
Rp4601
g6
(g10
g302
tp4602
Rp4603
g6
(g10
g245
tp4604
Rp4605
tp4606
I01
s(g6
(g10
g95
tp4607
Rp4608
g6
(g10
g296
tp4609
Rp4610
g6
(g10
g413
tp4611
Rp4612
tp4613
I01
s(g6
(g10
g136
tp4614
Rp4615
g6
(g10
g88
tp4616
Rp4617
g6
(g10
g2206
tp4618
Rp4619
tp4620
I01
s(g6
(g10
g136
tp4621
Rp4622
g6
(g10
g671
tp4623
Rp4624
g6
(g10
g3674
tp4625
Rp4626
tp4627
I01
s(g6
(g10
g13
tp4628
Rp4629
g6
(g10
g624
tp4630
Rp4631
g6
(g10
g841
tp4632
Rp4633
tp4634
I01
s(g6
(g10
g32
tp4635
Rp4636
g6
(g10
g108
tp4637
Rp4638
g6
(g10
g3072
tp4639
Rp4640
tp4641
I01
s(g6
(g10
g232
tp4642
Rp4643
g6
(g10
g716
tp4644
Rp4645
g6
(g10
g105
tp4646
Rp4647
tp4648
I01
s(g6
(g10
g42
tp4649
Rp4650
g6
(g10
g467
tp4651
Rp4652
g6
(g10
g3072
tp4653
Rp4654
tp4655
I01
s(g6
(g10
g188
tp4656
Rp4657
g6
(g10
g573
tp4658
Rp4659
g6
(g10
g201
tp4660
Rp4661
tp4662
I01
s(g6
(g10
g13
tp4663
Rp4664
g6
(g10
g181
tp4665
Rp4666
g6
(g10
g80
tp4667
Rp4668
tp4669
I01
s(g6
(g10
g13
tp4670
Rp4671
g6
(g10
g105
tp4672
Rp4673
g6
(g10
g2900
tp4674
Rp4675
tp4676
I01
s(g6
(g10
g105
tp4677
Rp4678
g6
(g10
g1048
tp4679
Rp4680
g6
(g10
g2479
tp4681
Rp4682
tp4683
I01
s(g6
(g10
g232
tp4684
Rp4685
g6
(g10
g16
tp4686
Rp4687
g6
(g10
g363
tp4688
Rp4689
tp4690
I01
s(g6
(g10
g42
tp4691
Rp4692
g6
(g10
g293
tp4693
Rp4694
g6
(g10
g2328
tp4695
Rp4696
tp4697
I01
s(g6
(g10
g105
tp4698
Rp4699
g6
(g10
g136
tp4700
Rp4701
g6
(g10
g1293
tp4702
Rp4703
tp4704
I01
s(g6
(g10
g13
tp4705
Rp4706
g6
(g10
g98
tp4707
Rp4708
g6
(g10
g1343
tp4709
Rp4710
tp4711
I01
s(g6
(g10
g95
tp4712
Rp4713
g6
(g10
g95
tp4714
Rp4715
g6
(g10
g305
tp4716
Rp4717
tp4718
I01
s(g6
(g10
g209
tp4719
Rp4720
g6
(g10
g293
tp4721
Rp4722
g6
(g10
g681
tp4723
Rp4724
tp4725
I01
s(g6
(g10
g42
tp4726
Rp4727
g6
(g10
g19
tp4728
Rp4729
g6
(g10
g1841
tp4730
Rp4731
tp4732
I01
s(g6
(g10
g1168
tp4733
Rp4734
g6
(g10
g1108
tp4735
Rp4736
g6
(g10
g28
tp4737
Rp4738
tp4739
I01
s(g6
(g10
g143
tp4740
Rp4741
g6
(g10
g744
tp4742
Rp4743
g6
(g10
g770
tp4744
Rp4745
tp4746
I01
s(g6
(g10
g95
tp4747
Rp4748
g6
(g10
g184
tp4749
Rp4750
g6
(g10
g487
tp4751
Rp4752
tp4753
I01
s(g6
(g10
g105
tp4754
Rp4755
g6
(g10
g127
tp4756
Rp4757
g6
(g10
g222
tp4758
Rp4759
tp4760
I01
s(g6
(g10
g52
tp4761
Rp4762
g6
(g10
g830
tp4763
Rp4764
g6
(g10
g1984
tp4765
Rp4766
tp4767
I01
s(g6
(g10
g52
tp4768
Rp4769
g6
(g10
g172
tp4770
Rp4771
g6
(g10
g1984
tp4772
Rp4773
tp4774
I01
s(g6
(g10
g136
tp4775
Rp4776
g6
(g10
g331
tp4777
Rp4778
g6
(g10
g105
tp4779
Rp4780
tp4781
I01
s(g6
(g10
g105
tp4782
Rp4783
g6
(g10
g337
tp4784
Rp4785
g6
(g10
g1205
tp4786
Rp4787
tp4788
I01
s(g6
(g10
g169
tp4789
Rp4790
g6
(g10
g533
tp4791
Rp4792
g6
(g10
g573
tp4793
Rp4794
tp4795
I01
s(g6
(g10
g13
tp4796
Rp4797
g6
(g10
g280
tp4798
Rp4799
g6
(g10
g1481
tp4800
Rp4801
tp4802
I01
s(g6
(g10
g95
tp4803
Rp4804
g6
(g10
g16
tp4805
Rp4806
g6
(g10
g3957
tp4807
Rp4808
tp4809
I01
s(g6
(g10
g42
tp4810
Rp4811
g6
(g10
g184
tp4812
Rp4813
g6
(g10
g445
tp4814
Rp4815
tp4816
I01
s(g6
(g10
g169
tp4817
Rp4818
g6
(g10
g777
tp4819
Rp4820
g6
(g10
g98
tp4821
Rp4822
tp4823
I01
s(g6
(g10
g95
tp4824
Rp4825
g6
(g10
g16
tp4826
Rp4827
g6
(g10
g1856
tp4828
Rp4829
tp4830
I01
s(g6
(g10
g13
tp4831
Rp4832
g6
(g10
g184
tp4833
Rp4834
g6
(g10
g143
tp4835
Rp4836
tp4837
I01
s(g6
(g10
g105
tp4838
Rp4839
g6
(g10
g146
tp4840
Rp4841
g6
(g10
g222
tp4842
Rp4843
tp4844
I01
s(g6
(g10
g13
tp4845
Rp4846
g6
(g10
g35
tp4847
Rp4848
g6
(g10
g1092
tp4849
Rp4850
tp4851
I01
s(g6
(g10
g105
tp4852
Rp4853
g6
(g10
g215
tp4854
Rp4855
g6
(g10
g1489
tp4856
Rp4857
tp4858
I01
s(g6
(g10
g52
tp4859
Rp4860
g6
(g10
g181
tp4861
Rp4862
g6
(g10
g1033
tp4863
Rp4864
tp4865
I01
s(g6
(g10
g136
tp4866
Rp4867
g6
(g10
g733
tp4868
Rp4869
g6
(g10
g744
tp4870
Rp4871
tp4872
I01
s(g6
(g10
g95
tp4873
Rp4874
g6
(g10
g19
tp4875
Rp4876
g6
(g10
g1445
tp4877
Rp4878
tp4879
I01
s(g6
(g10
g52
tp4880
Rp4881
g6
(g10
g517
tp4882
Rp4883
g6
(g10
g437
tp4884
Rp4885
tp4886
I01
s(g6
(g10
g105
tp4887
Rp4888
g6
(g10
g108
tp4889
Rp4890
g6
(g10
g387
tp4891
Rp4892
tp4893
I01
s(g6
(g10
g77
tp4894
Rp4895
g6
(g10
g314
tp4896
Rp4897
g6
(g10
g127
tp4898
Rp4899
tp4900
I01
s(g6
(g10
g52
tp4901
Rp4902
g6
(g10
g314
tp4903
Rp4904
g6
(g10
g1934
tp4905
Rp4906
tp4907
I01
s(g6
(g10
g266
tp4908
Rp4909
g6
(g10
g830
tp4910
Rp4911
g6
(g10
g681
tp4912
Rp4913
tp4914
I01
s(g6
(g10
g95
tp4915
Rp4916
g6
(g10
g337
tp4917
Rp4918
g6
(g10
g262
tp4919
Rp4920
tp4921
I01
s(g6
(g10
g136
tp4922
Rp4923
g6
(g10
g302
tp4924
Rp4925
g6
(g10
g146
tp4926
Rp4927
tp4928
I01
s(g6
(g10
g105
tp4929
Rp4930
g6
(g10
g108
tp4931
Rp4932
g6
(g10
g624
tp4933
Rp4934
tp4935
I01
s(g6
(g10
g209
tp4936
Rp4937
g6
(g10
g627
tp4938
Rp4939
g6
(g10
g689
tp4940
Rp4941
tp4942
I01
s(g6
(g10
g13
tp4943
Rp4944
g6
(g10
g136
tp4945
Rp4946
g6
(g10
g143
tp4947
Rp4948
tp4949
I01
s(g6
(g10
g52
tp4950
Rp4951
g6
(g10
g95
tp4952
Rp4953
g6
(g10
g1176
tp4954
Rp4955
tp4956
I01
s(g6
(g10
g188
tp4957
Rp4958
g6
(g10
g95
tp4959
Rp4960
g6
(g10
g627
tp4961
Rp4962
tp4963
I01
s(g6
(g10
g105
tp4964
Rp4965
g6
(g10
g48
tp4966
Rp4967
g6
(g10
g627
tp4968
Rp4969
tp4970
I01
s(g6
(g10
g136
tp4971
Rp4972
g6
(g10
g16
tp4973
Rp4974
g6
(g10
S'\xc1'
p4975
tp4976
Rp4977
tp4978
I01
s(g6
(g10
g52
tp4979
Rp4980
g6
(g10
g320
tp4981
Rp4982
g6
(g10
g1168
tp4983
Rp4984
tp4985
I01
s(g6
(g10
g188
tp4986
Rp4987
g6
(g10
g885
tp4988
Rp4989
g6
(g10
g130
tp4990
Rp4991
tp4992
I01
s(g6
(g10
g95
tp4993
Rp4994
g6
(g10
g45
tp4995
Rp4996
g6
(g10
g864
tp4997
Rp4998
tp4999
I01
s(g6
(g10
g188
tp5000
Rp5001
g6
(g10
g62
tp5002
Rp5003
g6
(g10
g266
tp5004
Rp5005
tp5006
I01
s(g6
(g10
g32
tp5007
Rp5008
g6
(g10
g484
tp5009
Rp5010
g6
(g10
g445
tp5011
Rp5012
tp5013
I01
s(g6
(g10
g105
tp5014
Rp5015
g6
(g10
g320
tp5016
Rp5017
g6
(g10
g331
tp5018
Rp5019
tp5020
I01
s(g6
(g10
g136
tp5021
Rp5022
g6
(g10
g557
tp5023
Rp5024
g6
(g10
g3574
tp5025
Rp5026
tp5027
I01
s(g6
(g10
g169
tp5028
Rp5029
g6
(g10
g376
tp5030
Rp5031
g6
(g10
g759
tp5032
Rp5033
tp5034
I01
s(g6
(g10
g52
tp5035
Rp5036
g6
(g10
g533
tp5037
Rp5038
g6
(g10
g1841
tp5039
Rp5040
tp5041
I01
s(g6
(g10
g13
tp5042
Rp5043
g6
(g10
g864
tp5044
Rp5045
g6
(g10
g80
tp5046
Rp5047
tp5048
I01
s(g6
(g10
g95
tp5049
Rp5050
g6
(g10
g393
tp5051
Rp5052
g6
(g10
g1711
tp5053
Rp5054
tp5055
I01
s(g6
(g10
g77
tp5056
Rp5057
g6
(g10
g302
tp5058
Rp5059
g6
(g10
g643
tp5060
Rp5061
tp5062
I01
s(g6
(g10
g105
tp5063
Rp5064
g6
(g10
g136
tp5065
Rp5066
g6
(g10
g753
tp5067
Rp5068
tp5069
I01
s(g6
(g10
g95
tp5070
Rp5071
g6
(g10
g52
tp5072
Rp5073
g6
(g10
g3957
tp5074
Rp5075
tp5076
I01
s(g6
(g10
g13
tp5077
Rp5078
g6
(g10
g419
tp5079
Rp5080
g6
(g10
g1611
tp5081
Rp5082
tp5083
I01
s(g6
(g10
g232
tp5084
Rp5085
g6
(g10
g101
tp5086
Rp5087
g6
(g10
g105
tp5088
Rp5089
tp5090
I01
s(g6
(g10
g13
tp5091
Rp5092
g6
(g10
g101
tp5093
Rp5094
g6
(g10
g2658
tp5095
Rp5096
tp5097
I01
s(g6
(g10
g95
tp5098
Rp5099
g6
(g10
g557
tp5100
Rp5101
g6
(g10
g777
tp5102
Rp5103
tp5104
I01
s(g6
(g10
g95
tp5105
Rp5106
g6
(g10
g759
tp5107
Rp5108
g6
(g10
g573
tp5109
Rp5110
tp5111
I01
s(g6
(g10
g169
tp5112
Rp5113
g6
(g10
g419
tp5114
Rp5115
g6
(g10
g487
tp5116
Rp5117
tp5118
I01
s(g6
(g10
g13
tp5119
Rp5120
g6
(g10
g337
tp5121
Rp5122
g6
(g10
g419
tp5123
Rp5124
tp5125
I01
s(g6
(g10
g136
tp5126
Rp5127
g6
(g10
g25
tp5128
Rp5129
g6
(g10
g393
tp5130
Rp5131
tp5132
I01
s(g6
(g10
g52
tp5133
Rp5134
g6
(g10
g296
tp5135
Rp5136
g6
(g10
g1984
tp5137
Rp5138
tp5139
I01
s(g6
(g10
g136
tp5140
Rp5141
g6
(g10
g346
tp5142
Rp5143
g6
(g10
g237
tp5144
Rp5145
tp5146
I01
s(g6
(g10
g136
tp5147
Rp5148
g6
(g10
g517
tp5149
Rp5150
g6
(g10
g4154
tp5151
Rp5152
tp5153
I01
s(g6
(g10
g52
tp5154
Rp5155
g6
(g10
g410
tp5156
Rp5157
g6
(g10
g1984
tp5158
Rp5159
tp5160
I01
s(g6
(g10
g95
tp5161
Rp5162
g6
(g10
g1831
tp5163
Rp5164
g6
(g10
g774
tp5165
Rp5166
tp5167
I01
s(g6
(g10
g95
tp5168
Rp5169
g6
(g10
g493
tp5170
Rp5171
g6
(g10
g476
tp5172
Rp5173
tp5174
I01
s(g6
(g10
g52
tp5175
Rp5176
g6
(g10
g62
tp5177
Rp5178
g6
(g10
g611
tp5179
Rp5180
tp5181
I01
s(g6
(g10
g733
tp5182
Rp5183
g6
(g10
g422
tp5184
Rp5185
g6
(g10
g158
tp5186
Rp5187
tp5188
I01
s(g6
(g10
g13
tp5189
Rp5190
g6
(g10
g101
tp5191
Rp5192
g6
(g10
g658
tp5193
Rp5194
tp5195
I01
s(g6
(g10
g13
tp5196
Rp5197
g6
(g10
g19
tp5198
Rp5199
g6
(g10
g671
tp5200
Rp5201
tp5202
I01
s(g6
(g10
g232
tp5203
Rp5204
g6
(g10
g376
tp5205
Rp5206
g6
(g10
g1249
tp5207
Rp5208
tp5209
I01
s(g6
(g10
g105
tp5210
Rp5211
g6
(g10
g155
tp5212
Rp5213
g6
(g10
g410
tp5214
Rp5215
tp5216
I01
s(g6
(g10
g774
tp5217
Rp5218
g6
(g10
g759
tp5219
Rp5220
g6
(g10
g4154
tp5221
Rp5222
tp5223
I01
s(g6
(g10
g42
tp5224
Rp5225
g6
(g10
g62
tp5226
Rp5227
g6
(g10
g2058
tp5228
Rp5229
tp5230
I01
s(g6
(g10
g136
tp5231
Rp5232
g6
(g10
g346
tp5233
Rp5234
g6
(g10
g232
tp5235
Rp5236
tp5237
I01
s(g6
(g10
g188
tp5238
Rp5239
g6
(g10
g476
tp5240
Rp5241
g6
(g10
g2965
tp5242
Rp5243
tp5244
I01
s(g6
(g10
g95
tp5245
Rp5246
g6
(g10
g13
tp5247
Rp5248
g6
(g10
g1445
tp5249
Rp5250
tp5251
I01
s(g6
(g10
g136
tp5252
Rp5253
g6
(g10
g88
tp5254
Rp5255
g6
(g10
g2814
tp5256
Rp5257
tp5258
I01
s(g6
(g10
g52
tp5259
Rp5260
g6
(g10
g1063
tp5261
Rp5262
g6
(g10
g3072
tp5263
Rp5264
tp5265
I01
s(g6
(g10
g774
tp5266
Rp5267
g6
(g10
g759
tp5268
Rp5269
g6
(g10
g184
tp5270
Rp5271
tp5272
I01
s(g6
(g10
g105
tp5273
Rp5274
g6
(g10
g525
tp5275
Rp5276
g6
(g10
g266
tp5277
Rp5278
tp5279
I01
s(g6
(g10
g95
tp5280
Rp5281
g6
(g10
g346
tp5282
Rp5283
g6
(g10
g1856
tp5284
Rp5285
tp5286
I01
s(g6
(g10
g136
tp5287
Rp5288
g6
(g10
g393
tp5289
Rp5290
g6
(g10
g184
tp5291
Rp5292
tp5293
I01
s(g6
(g10
g52
tp5294
Rp5295
g6
(g10
g296
tp5296
Rp5297
g6
(g10
g560
tp5298
Rp5299
tp5300
I01
s(g6
(g10
g143
tp5301
Rp5302
g6
(g10
g302
tp5303
Rp5304
g6
(g10
g320
tp5305
Rp5306
tp5307
I01
s(g6
(g10
g13
tp5308
Rp5309
g6
(g10
g127
tp5310
Rp5311
g6
(g10
g62
tp5312
Rp5313
tp5314
I01
s(g6
(g10
g232
tp5315
Rp5316
g6
(g10
g127
tp5317
Rp5318
g6
(g10
g232
tp5319
Rp5320
tp5321
I01
s(g6
(g10
g169
tp5322
Rp5323
g6
(g10
g393
tp5324
Rp5325
g6
(g10
g1856
tp5326
Rp5327
tp5328
I01
s(g6
(g10
g774
tp5329
Rp5330
g6
(g10
g864
tp5331
Rp5332
g6
(g10
g237
tp5333
Rp5334
tp5335
I01
s(g6
(g10
g95
tp5336
Rp5337
g6
(g10
g280
tp5338
Rp5339
g6
(g10
g487
tp5340
Rp5341
tp5342
I01
s(g6
(g10
g188
tp5343
Rp5344
g6
(g10
g340
tp5345
Rp5346
g6
(g10
g136
tp5347
Rp5348
tp5349
I01
s(g6
(g10
g32
tp5350
Rp5351
g6
(g10
g45
tp5352
Rp5353
g6
(g10
g218
tp5354
Rp5355
tp5356
I01
s(g6
(g10
g95
tp5357
Rp5358
g6
(g10
g744
tp5359
Rp5360
g6
(g10
g470
tp5361
Rp5362
tp5363
I01
s(g6
(g10
g266
tp5364
Rp5365
g6
(g10
g35
tp5366
Rp5367
g6
(g10
g671
tp5368
Rp5369
tp5370
I01
s(g6
(g10
g169
tp5371
Rp5372
g6
(g10
g453
tp5373
Rp5374
g6
(g10
g52
tp5375
Rp5376
tp5377
I01
s(g6
(g10
g52
tp5378
Rp5379
g6
(g10
g71
tp5380
Rp5381
g6
(g10
g2558
tp5382
Rp5383
tp5384
I01
s(g6
(g10
g13
tp5385
Rp5386
g6
(g10
g777
tp5387
Rp5388
g6
(g10
g872
tp5389
Rp5390
tp5391
I01
s(g6
(g10
g169
tp5392
Rp5393
g6
(g10
g105
tp5394
Rp5395
g6
(g10
g864
tp5396
Rp5397
tp5398
I01
s(g6
(g10
g13
tp5399
Rp5400
g6
(g10
g19
tp5401
Rp5402
g6
(g10
g13
tp5403
Rp5404
tp5405
I01
s(g6
(g10
g13
tp5406
Rp5407
g6
(g10
g35
tp5408
Rp5409
g6
(g10
g551
tp5410
Rp5411
tp5412
I01
s(g6
(g10
g95
tp5413
Rp5414
g6
(g10
g533
tp5415
Rp5416
g6
(g10
g88
tp5417
Rp5418
tp5419
I01
s(g6
(g10
g13
tp5420
Rp5421
g6
(g10
g744
tp5422
Rp5423
g6
(g10
g71
tp5424
Rp5425
tp5426
I01
s(g6
(g10
g136
tp5427
Rp5428
g6
(g10
g302
tp5429
Rp5430
g6
(g10
g105
tp5431
Rp5432
tp5433
I01
s(g6
(g10
g105
tp5434
Rp5435
g6
(g10
g52
tp5436
Rp5437
g6
(g10
g280
tp5438
Rp5439
tp5440
I01
s(g6
(g10
g105
tp5441
Rp5442
g6
(g10
g627
tp5443
Rp5444
g6
(g10
g624
tp5445
Rp5446
tp5447
I01
s(g6
(g10
g136
tp5448
Rp5449
g6
(g10
g384
tp5450
Rp5451
g6
(g10
g1285
tp5452
Rp5453
tp5454
I01
s(g6
(g10
g105
tp5455
Rp5456
g6
(g10
g476
tp5457
Rp5458
g6
(g10
g111
tp5459
Rp5460
tp5461
I01
s(g6
(g10
g105
tp5462
Rp5463
g6
(g10
g259
tp5464
Rp5465
g6
(g10
g1205
tp5466
Rp5467
tp5468
I01
s(g6
(g10
g136
tp5469
Rp5470
g6
(g10
g52
tp5471
Rp5472
g6
(g10
g237
tp5473
Rp5474
tp5475
I01
s(g6
(g10
g143
tp5476
Rp5477
g6
(g10
g13
tp5478
Rp5479
g6
(g10
g2435
tp5480
Rp5481
tp5482
I01
s(g6
(g10
g774
tp5483
Rp5484
g6
(g10
g864
tp5485
Rp5486
g6
(g10
g1374
tp5487
Rp5488
tp5489
I01
s(g6
(g10
g95
tp5490
Rp5491
g6
(g10
g484
tp5492
Rp5493
g6
(g10
g476
tp5494
Rp5495
tp5496
I01
s(g6
(g10
g209
tp5497
Rp5498
g6
(g10
g80
tp5499
Rp5500
g6
(g10
g71
tp5501
Rp5502
tp5503
I01
s(g6
(g10
g95
tp5504
Rp5505
g6
(g10
g314
tp5506
Rp5507
g6
(g10
g2320
tp5508
Rp5509
tp5510
I01
s(g6
(g10
g42
tp5511
Rp5512
g6
(g10
g296
tp5513
Rp5514
g6
(g10
g1003
tp5515
Rp5516
tp5517
I01
s(g6
(g10
g136
tp5518
Rp5519
g6
(g10
g98
tp5520
Rp5521
g6
(g10
g467
tp5522
Rp5523
tp5524
I01
s(g6
(g10
g143
tp5525
Rp5526
g6
(g10
g28
tp5527
Rp5528
g6
(g10
g1654
tp5529
Rp5530
tp5531
I01
s(g6
(g10
g13
tp5532
Rp5533
g6
(g10
g172
tp5534
Rp5535
g6
(g10
g158
tp5536
Rp5537
tp5538
I01
s(g6
(g10
g42
tp5539
Rp5540
g6
(g10
g95
tp5541
Rp5542
g6
(g10
g2328
tp5543
Rp5544
tp5545
I01
s(g6
(g10
g13
tp5546
Rp5547
g6
(g10
g62
tp5548
Rp5549
g6
(g10
g419
tp5550
Rp5551
tp5552
I01
s(g6
(g10
g42
tp5553
Rp5554
g6
(g10
g759
tp5555
Rp5556
g6
(g10
g314
tp5557
Rp5558
tp5559
I01
s(g6
(g10
g209
tp5560
Rp5561
g6
(g10
g269
tp5562
Rp5563
g6
(g10
g13
tp5564
Rp5565
tp5566
I01
s(g6
(g10
g136
tp5567
Rp5568
g6
(g10
g484
tp5569
Rp5570
g6
(g10
g2814
tp5571
Rp5572
tp5573
I01
s(g6
(g10
g136
tp5574
Rp5575
g6
(g10
g98
tp5576
Rp5577
g6
(g10
g780
tp5578
Rp5579
tp5580
I01
s(g6
(g10
g95
tp5581
Rp5582
g6
(g10
g52
tp5583
Rp5584
g6
(g10
g1575
tp5585
Rp5586
tp5587
I01
s(g6
(g10
g52
tp5588
Rp5589
g6
(g10
g759
tp5590
Rp5591
g6
(g10
g376
tp5592
Rp5593
tp5594
I01
s(g6
(g10
g136
tp5595
Rp5596
g6
(g10
g215
tp5597
Rp5598
g6
(g10
g716
tp5599
Rp5600
tp5601
I01
s(g6
(g10
g95
tp5602
Rp5603
g6
(g10
g80
tp5604
Rp5605
g6
(g10
g2536
tp5606
Rp5607
tp5608
I01
s(g6
(g10
g105
tp5609
Rp5610
g6
(g10
g1176
tp5611
Rp5612
g6
(g10
g2435
tp5613
Rp5614
tp5615
I01
s(g6
(g10
g105
tp5616
Rp5617
g6
(g10
g259
tp5618
Rp5619
g6
(g10
g1152
tp5620
Rp5621
tp5622
I01
s(g6
(g10
g169
tp5623
Rp5624
g6
(g10
g28
tp5625
Rp5626
g6
(g10
g98
tp5627
Rp5628
tp5629
I01
s(g6
(g10
g13
tp5630
Rp5631
g6
(g10
g419
tp5632
Rp5633
g6
(g10
S'A'
p5634
tp5635
Rp5636
tp5637
I01
s(g6
(g10
g143
tp5638
Rp5639
g6
(g10
g777
tp5640
Rp5641
g6
(g10
g461
tp5642
Rp5643
tp5644
I01
s(g6
(g10
g42
tp5645
Rp5646
g6
(g10
g19
tp5647
Rp5648
g6
(g10
g885
tp5649
Rp5650
tp5651
I01
s(g6
(g10
g52
tp5652
Rp5653
g6
(g10
g716
tp5654
Rp5655
g6
(g10
g1176
tp5656
Rp5657
tp5658
I01
s(g6
(g10
g13
tp5659
Rp5660
g6
(g10
g410
tp5661
Rp5662
g6
(g10
g158
tp5663
Rp5664
tp5665
I01
s(g6
(g10
g136
tp5666
Rp5667
g6
(g10
g340
tp5668
Rp5669
g6
(g10
g311
tp5670
Rp5671
tp5672
I01
s(g6
(g10
g13
tp5673
Rp5674
g6
(g10
g52
tp5675
Rp5676
g6
(g10
g902
tp5677
Rp5678
tp5679
I01
s(g6
(g10
g232
tp5680
Rp5681
g6
(g10
g95
tp5682
Rp5683
g6
(g10
g340
tp5684
Rp5685
tp5686
I01
s(g6
(g10
g105
tp5687
Rp5688
g6
(g10
g1063
tp5689
Rp5690
g6
(g10
g1489
tp5691
Rp5692
tp5693
I01
s(g6
(g10
g136
tp5694
Rp5695
g6
(g10
g331
tp5696
Rp5697
g6
(g10
g146
tp5698
Rp5699
tp5700
I01
s(g6
(g10
g232
tp5701
Rp5702
g6
(g10
g759
tp5703
Rp5704
g6
(g10
g293
tp5705
Rp5706
tp5707
I01
s(g6
(g10
g232
tp5708
Rp5709
g6
(g10
g184
tp5710
Rp5711
g6
(g10
g293
tp5712
Rp5713
tp5714
I01
s(g6
(g10
g95
tp5715
Rp5716
g6
(g10
g885
tp5717
Rp5718
g6
(g10
g139
tp5719
Rp5720
tp5721
I01
s(g6
(g10
g52
tp5722
Rp5723
g6
(g10
g419
tp5724
Rp5725
g6
(g10
g885
tp5726
Rp5727
tp5728
I01
s(g6
(g10
g232
tp5729
Rp5730
g6
(g10
g181
tp5731
Rp5732
g6
(g10
g232
tp5733
Rp5734
tp5735
I01
s(g6
(g10
g77
tp5736
Rp5737
g6
(g10
g410
tp5738
Rp5739
g6
(g10
g305
tp5740
Rp5741
tp5742
I01
s(g6
(g10
g136
tp5743
Rp5744
g6
(g10
g45
tp5745
Rp5746
g6
(g10
g3674
tp5747
Rp5748
tp5749
I01
s(g6
(g10
g232
tp5750
Rp5751
g6
(g10
g517
tp5752
Rp5753
g6
(g10
g1374
tp5754
Rp5755
tp5756
I01
s(g6
(g10
g136
tp5757
Rp5758
g6
(g10
g864
tp5759
Rp5760
g6
(g10
g4154
tp5761
Rp5762
tp5763
I01
s(g6
(g10
g136
tp5764
Rp5765
g6
(g10
g172
tp5766
Rp5767
g6
(g10
g824
tp5768
Rp5769
tp5770
I01
s(g6
(g10
g52
tp5771
Rp5772
g6
(g10
g127
tp5773
Rp5774
g6
(g10
g1033
tp5775
Rp5776
tp5777
I01
s(g6
(g10
g52
tp5778
Rp5779
g6
(g10
g25
tp5780
Rp5781
g6
(g10
g346
tp5782
Rp5783
tp5784
I01
s(g6
(g10
g105
tp5785
Rp5786
g6
(g10
g45
tp5787
Rp5788
g6
(g10
g1654
tp5789
Rp5790
tp5791
I01
s(g6
(g10
g105
tp5792
Rp5793
g6
(g10
g413
tp5794
Rp5795
g6
(g10
g136
tp5796
Rp5797
tp5798
I01
s(g6
(g10
g42
tp5799
Rp5800
g6
(g10
g1048
tp5801
Rp5802
g6
(g10
g3072
tp5803
Rp5804
tp5805
I01
s(g6
(g10
g32
tp5806
Rp5807
g6
(g10
g744
tp5808
Rp5809
g6
(g10
g1841
tp5810
Rp5811
tp5812
I01
s(g6
(g10
g13
tp5813
Rp5814
g6
(g10
g1048
tp5815
Rp5816
g6
(g10
g689
tp5817
Rp5818
tp5819
I01
s(g6
(g10
g143
tp5820
Rp5821
g6
(g10
g384
tp5822
Rp5823
g6
(g10
g1489
tp5824
Rp5825
tp5826
I01
s(g6
(g10
g105
tp5827
Rp5828
g6
(g10
g777
tp5829
Rp5830
g6
(g10
g155
tp5831
Rp5832
tp5833
I01
s(g6
(g10
g136
tp5834
Rp5835
g6
(g10
g517
tp5836
Rp5837
g6
(g10
g4975
tp5838
Rp5839
tp5840
I01
s(g6
(g10
g95
tp5841
Rp5842
g6
(g10
g830
tp5843
Rp5844
g6
(g10
g127
tp5845
Rp5846
tp5847
I01
s(g6
(g10
g136
tp5848
Rp5849
g6
(g10
g28
tp5850
Rp5851
g6
(g10
g802
tp5852
Rp5853
tp5854
I01
s(g6
(g10
g52
tp5855
Rp5856
g6
(g10
g95
tp5857
Rp5858
g6
(g10
g611
tp5859
Rp5860
tp5861
I01
s(g6
(g10
g105
tp5862
Rp5863
g6
(g10
g573
tp5864
Rp5865
g6
(g10
g849
tp5866
Rp5867
tp5868
I01
s(g6
(g10
g52
tp5869
Rp5870
g6
(g10
g52
tp5871
Rp5872
g6
(g10
g2558
tp5873
Rp5874
tp5875
I01
s(g6
(g10
g209
tp5876
Rp5877
g6
(g10
g733
tp5878
Rp5879
g6
(g10
g671
tp5880
Rp5881
tp5882
I01
s(g6
(g10
g209
tp5883
Rp5884
g6
(g10
g759
tp5885
Rp5886
g6
(g10
g1481
tp5887
Rp5888
tp5889
I01
s(g6
(g10
g13
tp5890
Rp5891
g6
(g10
g62
tp5892
Rp5893
g6
(g10
g1063
tp5894
Rp5895
tp5896
I01
s(g6
(g10
g136
tp5897
Rp5898
g6
(g10
g25
tp5899
Rp5900
g6
(g10
g716
tp5901
Rp5902
tp5903
I01
s(g6
(g10
g95
tp5904
Rp5905
g6
(g10
g716
tp5906
Rp5907
g6
(g10
g305
tp5908
Rp5909
tp5910
I01
s(g6
(g10
g52
tp5911
Rp5912
g6
(g10
g13
tp5913
Rp5914
g6
(g10
g2594
tp5915
Rp5916
tp5917
I01
s(g6
(g10
g95
tp5918
Rp5919
g6
(g10
g517
tp5920
Rp5921
g6
(g10
g2320
tp5922
Rp5923
tp5924
I01
s(g6
(g10
g13
tp5925
Rp5926
g6
(g10
g627
tp5927
Rp5928
g6
(g10
g2900
tp5929
Rp5930
tp5931
I01
s(g6
(g10
g209
tp5932
Rp5933
g6
(g10
g484
tp5934
Rp5935
g6
(g10
g143
tp5936
Rp5937
tp5938
I01
s(g6
(g10
g169
tp5939
Rp5940
g6
(g10
g80
tp5941
Rp5942
g6
(g10
g470
tp5943
Rp5944
tp5945
I01
s(g6
(g10
g32
tp5946
Rp5947
g6
(g10
g269
tp5948
Rp5949
g6
(g10
g1841
tp5950
Rp5951
tp5952
I01
s(g6
(g10
g232
tp5953
Rp5954
g6
(g10
g1831
tp5955
Rp5956
g6
(g10
g802
tp5957
Rp5958
tp5959
I01
s(g6
(g10
g95
tp5960
Rp5961
g6
(g10
g467
tp5962
Rp5963
g6
(g10
g727
tp5964
Rp5965
tp5966
I01
s(g6
(g10
g13
tp5967
Rp5968
g6
(g10
g19
tp5969
Rp5970
g6
(g10
g736
tp5971
Rp5972
tp5973
I01
s(g6
(g10
g13
tp5974
Rp5975
g6
(g10
g337
tp5976
Rp5977
g6
(g10
g1063
tp5978
Rp5979
tp5980
I01
s(g6
(g10
g95
tp5981
Rp5982
g6
(g10
g1063
tp5983
Rp5984
g6
(g10
g188
tp5985
Rp5986
tp5987
I01
s(g6
(g10
g95
tp5988
Rp5989
g6
(g10
g296
tp5990
Rp5991
g6
(g10
g777
tp5992
Rp5993
tp5994
I01
s(g6
(g10
g169
tp5995
Rp5996
g6
(g10
g716
tp5997
Rp5998
g6
(g10
g262
tp5999
Rp6000
tp6001
I01
s(g6
(g10
g136
tp6002
Rp6003
g6
(g10
g671
tp6004
Rp6005
g6
(g10
g780
tp6006
Rp6007
tp6008
I01
s(g6
(g10
g136
tp6009
Rp6010
g6
(g10
g52
tp6011
Rp6012
g6
(g10
g1374
tp6013
Rp6014
tp6015
I01
s(g6
(g10
g266
tp6016
Rp6017
g6
(g10
g376
tp6018
Rp6019
g6
(g10
g689
tp6020
Rp6021
tp6022
I01
s(g6
(g10
g13
tp6023
Rp6024
g6
(g10
g502
tp6025
Rp6026
g6
(g10
g422
tp6027
Rp6028
tp6029
I01
s(g6
(g10
g95
tp6030
Rp6031
g6
(g10
g885
tp6032
Rp6033
g6
(g10
g396
tp6034
Rp6035
tp6036
I01
s(g6
(g10
g52
tp6037
Rp6038
g6
(g10
g259
tp6039
Rp6040
g6
(g10
g611
tp6041
Rp6042
tp6043
I01
s(g6
(g10
g143
tp6044
Rp6045
g6
(g10
g1831
tp6046
Rp6047
g6
(g10
g624
tp6048
Rp6049
tp6050
I01
s(g6
(g10
g136
tp6051
Rp6052
g6
(g10
g155
tp6053
Rp6054
g6
(g10
g237
tp6055
Rp6056
tp6057
I01
s(g6
(g10
g13
tp6058
Rp6059
g6
(g10
g1048
tp6060
Rp6061
g6
(g10
g3094
tp6062
Rp6063
tp6064
I01
s(g6
(g10
g95
tp6065
Rp6066
g6
(g10
g172
tp6067
Rp6068
g6
(g10
g337
tp6069
Rp6070
tp6071
I01
s(g6
(g10
g136
tp6072
Rp6073
g6
(g10
g573
tp6074
Rp6075
g6
(g10
g3574
tp6076
Rp6077
tp6078
I01
s(g6
(g10
g232
tp6079
Rp6080
g6
(g10
g215
tp6081
Rp6082
g6
(g10
g311
tp6083
Rp6084
tp6085
I01
s(g6
(g10
g266
tp6086
Rp6087
g6
(g10
g759
tp6088
Rp6089
g6
(g10
g16
tp6090
Rp6091
tp6092
I01
s(g6
(g10
g95
tp6093
Rp6094
g6
(g10
g62
tp6095
Rp6096
g6
(g10
g262
tp6097
Rp6098
tp6099
I01
s(g6
(g10
g42
tp6100
Rp6101
g6
(g10
g28
tp6102
Rp6103
g6
(g10
g121
tp6104
Rp6105
tp6106
I01
s(g6
(g10
g42
tp6107
Rp6108
g6
(g10
g88
tp6109
Rp6110
g6
(g10
g939
tp6111
Rp6112
tp6113
I01
s(g6
(g10
g169
tp6114
Rp6115
g6
(g10
g88
tp6116
Rp6117
g6
(g10
g1011
tp6118
Rp6119
tp6120
I01
s(g6
(g10
g32
tp6121
Rp6122
g6
(g10
g331
tp6123
Rp6124
g6
(g10
g2058
tp6125
Rp6126
tp6127
I01
s(g6
(g10
g95
tp6128
Rp6129
g6
(g10
g624
tp6130
Rp6131
g6
(g10
g774
tp6132
Rp6133
tp6134
I01
s(g6
(g10
g833
tp6135
Rp6136
g6
(g10
g3094
tp6137
Rp6138
g6
(g10
g237
tp6139
Rp6140
tp6141
I01
s(g6
(g10
g105
tp6142
Rp6143
g6
(g10
g337
tp6144
Rp6145
g6
(g10
g266
tp6146
Rp6147
tp6148
I01
s(g6
(g10
g52
tp6149
Rp6150
g6
(g10
g525
tp6151
Rp6152
g6
(g10
g1790
tp6153
Rp6154
tp6155
I01
s(g6
(g10
g95
tp6156
Rp6157
g6
(g10
g280
tp6158
Rp6159
g6
(g10
g2175
tp6160
Rp6161
tp6162
I01
s(g6
(g10
g52
tp6163
Rp6164
g6
(g10
g1048
tp6165
Rp6166
g6
(g10
g830
tp6167
Rp6168
tp6169
I01
s(g6
(g10
g105
tp6170
Rp6171
g6
(g10
g671
tp6172
Rp6173
g6
(g10
g1654
tp6174
Rp6175
tp6176
I01
s(g6
(g10
g105
tp6177
Rp6178
g6
(g10
g759
tp6179
Rp6180
g6
(g10
g2435
tp6181
Rp6182
tp6183
I01
s(g6
(g10
g136
tp6184
Rp6185
g6
(g10
g467
tp6186
Rp6187
g6
(g10
g393
tp6188
Rp6189
tp6190
I01
s(g6
(g10
g209
tp6191
Rp6192
g6
(g10
g28
tp6193
Rp6194
g6
(g10
g872
tp6195
Rp6196
tp6197
I01
s(g6
(g10
g105
tp6198
Rp6199
g6
(g10
g413
tp6200
Rp6201
g6
(g10
g525
tp6202
Rp6203
tp6204
I01
s(g6
(g10
g13
tp6205
Rp6206
g6
(g10
g296
tp6207
Rp6208
g6
(g10
g4169
tp6209
Rp6210
tp6211
I01
s(g6
(g10
g136
tp6212
Rp6213
g6
(g10
g413
tp6214
Rp6215
g6
(g10
g750
tp6216
Rp6217
tp6218
I01
s(g6
(g10
g232
tp6219
Rp6220
g6
(g10
g885
tp6221
Rp6222
g6
(g10
g184
tp6223
Rp6224
tp6225
I01
s(g6
(g10
g136
tp6226
Rp6227
g6
(g10
g517
tp6228
Rp6229
g6
(g10
g232
tp6230
Rp6231
tp6232
I01
s(g6
(g10
g105
tp6233
Rp6234
g6
(g10
g476
tp6235
Rp6236
g6
(g10
g1654
tp6237
Rp6238
tp6239
I01
s(g6
(g10
g232
tp6240
Rp6241
g6
(g10
g627
tp6242
Rp6243
g6
(g10
S'&'
p6244
tp6245
Rp6246
tp6247
I01
s(g6
(g10
g169
tp6248
Rp6249
g6
(g10
g467
tp6250
Rp6251
g6
(g10
g2221
tp6252
Rp6253
tp6254
I01
s(g6
(g10
g105
tp6255
Rp6256
g6
(g10
g314
tp6257
Rp6258
g6
(g10
g222
tp6259
Rp6260
tp6261
I01
s(g6
(g10
g95
tp6262
Rp6263
g6
(g10
g146
tp6264
Rp6265
g6
(g10
g2320
tp6266
Rp6267
tp6268
I01
s(g6
(g10
g95
tp6269
Rp6270
g6
(g10
g127
tp6271
Rp6272
g6
(g10
g2320
tp6273
Rp6274
tp6275
I01
s(g6
(g10
g52
tp6276
Rp6277
g6
(g10
g525
tp6278
Rp6279
g6
(g10
g32
tp6280
Rp6281
tp6282
I01
s(g6
(g10
g42
tp6283
Rp6284
g6
(g10
g419
tp6285
Rp6286
g6
(g10
g314
tp6287
Rp6288
tp6289
I01
s(g6
(g10
g52
tp6290
Rp6291
g6
(g10
g215
tp6292
Rp6293
g6
(g10
g346
tp6294
Rp6295
tp6296
I01
s(g6
(g10
g95
tp6297
Rp6298
g6
(g10
g105
tp6299
Rp6300
g6
(g10
g759
tp6301
Rp6302
tp6303
I01
s(g6
(g10
g188
tp6304
Rp6305
g6
(g10
g311
tp6306
Rp6307
g6
(g10
g1340
tp6308
Rp6309
tp6310
I01
s(g6
(g10
g13
tp6311
Rp6312
g6
(g10
g45
tp6313
Rp6314
g6
(g10
g3342
tp6315
Rp6316
tp6317
I01
s(g6
(g10
g95
tp6318
Rp6319
g6
(g10
g62
tp6320
Rp6321
g6
(g10
g404
tp6322
Rp6323
tp6324
I01
s(g6
(g10
g13
tp6325
Rp6326
g6
(g10
g627
tp6327
Rp6328
g6
(g10
g872
tp6329
Rp6330
tp6331
I01
s(g6
(g10
g143
tp6332
Rp6333
g6
(g10
g467
tp6334
Rp6335
g6
(g10
g331
tp6336
Rp6337
tp6338
I01
s(g6
(g10
g95
tp6339
Rp6340
g6
(g10
g320
tp6341
Rp6342
g6
(g10
g470
tp6343
Rp6344
tp6345
I01
s(g6
(g10
g13
tp6346
Rp6347
g6
(g10
g376
tp6348
Rp6349
g6
(g10
g1048
tp6350
Rp6351
tp6352
I01
s(g6
(g10
g105
tp6353
Rp6354
g6
(g10
g864
tp6355
Rp6356
g6
(g10
g130
tp6357
Rp6358
tp6359
I01
s(g6
(g10
g52
tp6360
Rp6361
g6
(g10
g155
tp6362
Rp6363
g6
(g10
g1329
tp6364
Rp6365
tp6366
I01
s(g6
(g10
g105
tp6367
Rp6368
g6
(g10
g13
tp6369
Rp6370
g6
(g10
g770
tp6371
Rp6372
tp6373
I01
s(g6
(g10
g13
tp6374
Rp6375
g6
(g10
g573
tp6376
Rp6377
g6
(g10
g658
tp6378
Rp6379
tp6380
I01
s(g6
(g10
g105
tp6381
Rp6382
g6
(g10
g453
tp6383
Rp6384
g6
(g10
g331
tp6385
Rp6386
tp6387
I01
s(g6
(g10
g209
tp6388
Rp6389
g6
(g10
g864
tp6390
Rp6391
g6
(g10
g62
tp6392
Rp6393
tp6394
I01
s(g6
(g10
g13
tp6395
Rp6396
g6
(g10
g302
tp6397
Rp6398
g6
(g10
g1063
tp6399
Rp6400
tp6401
I01
s(g6
(g10
g95
tp6402
Rp6403
g6
(g10
g105
tp6404
Rp6405
g6
(g10
g259
tp6406
Rp6407
tp6408
I01
s(g6
(g10
g209
tp6409
Rp6410
g6
(g10
g71
tp6411
Rp6412
g6
(g10
g158
tp6413
Rp6414
tp6415
I01
s(g6
(g10
g209
tp6416
Rp6417
g6
(g10
g215
tp6418
Rp6419
g6
(g10
g71
tp6420
Rp6421
tp6422
I01
s(g6
(g10
g169
tp6423
Rp6424
g6
(g10
g885
tp6425
Rp6426
g6
(g10
g1856
tp6427
Rp6428
tp6429
I01
s(g6
(g10
g105
tp6430
Rp6431
g6
(g10
g493
tp6432
Rp6433
g6
(g10
g3043
tp6434
Rp6435
tp6436
I01
s(g6
(g10
g13
tp6437
Rp6438
g6
(g10
g98
tp6439
Rp6440
g6
(g10
g3094
tp6441
Rp6442
tp6443
I01
s(g6
(g10
g95
tp6444
Rp6445
g6
(g10
g293
tp6446
Rp6447
g6
(g10
g777
tp6448
Rp6449
tp6450
I01
s(g6
(g10
g105
tp6451
Rp6452
g6
(g10
g502
tp6453
Rp6454
g6
(g10
g2464
tp6455
Rp6456
tp6457
I01
s(g6
(g10
g42
tp6458
Rp6459
g6
(g10
g296
tp6460
Rp6461
g6
(g10
g25
tp6462
Rp6463
tp6464
I01
s(g6
(g10
g95
tp6465
Rp6466
g6
(g10
g98
tp6467
Rp6468
g6
(g10
g1100
tp6469
Rp6470
tp6471
I01
s(g6
(g10
g136
tp6472
Rp6473
g6
(g10
g311
tp6474
Rp6475
g6
(g10
g533
tp6476
Rp6477
tp6478
I01
s(g6
(g10
g13
tp6479
Rp6480
g6
(g10
g557
tp6481
Rp6482
g6
(g10
g4169
tp6483
Rp6484
tp6485
I01
s(g6
(g10
g13
tp6486
Rp6487
g6
(g10
g45
tp6488
Rp6489
g6
(g10
g3094
tp6490
Rp6491
tp6492
I01
s(g6
(g10
g95
tp6493
Rp6494
g6
(g10
g181
tp6495
Rp6496
g6
(g10
g396
tp6497
Rp6498
tp6499
I01
s(g6
(g10
g136
tp6500
Rp6501
g6
(g10
g410
tp6502
Rp6503
g6
(g10
g924
tp6504
Rp6505
tp6506
I01
s(g6
(g10
g105
tp6507
Rp6508
g6
(g10
g346
tp6509
Rp6510
g6
(g10
g410
tp6511
Rp6512
tp6513
I01
s(g6
(g10
g95
tp6514
Rp6515
g6
(g10
g331
tp6516
Rp6517
g6
(g10
g719
tp6518
Rp6519
tp6520
I01
s(g6
(g10
g136
tp6521
Rp6522
g6
(g10
g98
tp6523
Rp6524
g6
(g10
g393
tp6525
Rp6526
tp6527
I01
s(g6
(g10
g52
tp6528
Rp6529
g6
(g10
g557
tp6530
Rp6531
g6
(g10
g25
tp6532
Rp6533
tp6534
I01
s(g6
(g10
g105
tp6535
Rp6536
g6
(g10
g744
tp6537
Rp6538
g6
(g10
g331
tp6539
Rp6540
tp6541
I01
s(g6
(g10
g136
tp6542
Rp6543
g6
(g10
g346
tp6544
Rp6545
g6
(g10
g1374
tp6546
Rp6547
tp6548
I01
s(g6
(g10
g136
tp6549
Rp6550
g6
(g10
g393
tp6551
Rp6552
g6
(g10
g384
tp6553
Rp6554
tp6555
I01
s(g6
(g10
g105
tp6556
Rp6557
g6
(g10
g13
tp6558
Rp6559
g6
(g10
g136
tp6560
Rp6561
tp6562
I01
s(g6
(g10
g105
tp6563
Rp6564
g6
(g10
g410
tp6565
Rp6566
g6
(g10
g149
tp6567
Rp6568
tp6569
I01
s(g6
(g10
g188
tp6570
Rp6571
g6
(g10
g384
tp6572
Rp6573
g6
(g10
g1654
tp6574
Rp6575
tp6576
I01
s(g6
(g10
g232
tp6577
Rp6578
g6
(g10
g172
tp6579
Rp6580
g6
(g10
g363
tp6581
Rp6582
tp6583
I01
s(g6
(g10
g95
tp6584
Rp6585
g6
(g10
g1831
tp6586
Rp6587
g6
(g10
g3624
tp6588
Rp6589
tp6590
I01
s(g6
(g10
g52
tp6591
Rp6592
g6
(g10
g45
tp6593
Rp6594
g6
(g10
g121
tp6595
Rp6596
tp6597
I01
s(g6
(g10
g232
tp6598
Rp6599
g6
(g10
g744
tp6600
Rp6601
g6
(g10
g118
tp6602
Rp6603
tp6604
I01
s(g6
(g10
g52
tp6605
Rp6606
g6
(g10
g419
tp6607
Rp6608
g6
(g10
g215
tp6609
Rp6610
tp6611
I01
s(g6
(g10
g105
tp6612
Rp6613
g6
(g10
g269
tp6614
Rp6615
g6
(g10
g193
tp6616
Rp6617
tp6618
I01
s(g6
(g10
g95
tp6619
Rp6620
g6
(g10
g493
tp6621
Rp6622
g6
(g10
g573
tp6623
Rp6624
tp6625
I01
s(g6
(g10
g32
tp6626
Rp6627
g6
(g10
g864
tp6628
Rp6629
g6
(g10
g2558
tp6630
Rp6631
tp6632
I01
s(g6
(g10
g32
tp6633
Rp6634
g6
(g10
g320
tp6635
Rp6636
g6
(g10
g885
tp6637
Rp6638
tp6639
I01
s(g6
(g10
g95
tp6640
Rp6641
g6
(g10
g293
tp6642
Rp6643
g6
(g10
g719
tp6644
Rp6645
tp6646
I01
s(g6
(g10
g42
tp6647
Rp6648
g6
(g10
g671
tp6649
Rp6650
g6
(g10
g493
tp6651
Rp6652
tp6653
I01
s(g6
(g10
g42
tp6654
Rp6655
g6
(g10
g573
tp6656
Rp6657
g6
(g10
g1176
tp6658
Rp6659
tp6660
I01
s(g6
(g10
g95
tp6661
Rp6662
g6
(g10
g467
tp6663
Rp6664
g6
(g10
g1100
tp6665
Rp6666
tp6667
I01
s(g6
(g10
g95
tp6668
Rp6669
g6
(g10
g376
tp6670
Rp6671
g6
(g10
g3624
tp6672
Rp6673
tp6674
I01
s(g6
(g10
g188
tp6675
Rp6676
g6
(g10
g493
tp6677
Rp6678
g6
(g10
g2435
tp6679
Rp6680
tp6681
I01
s(g6
(g10
g13
tp6682
Rp6683
g6
(g10
g296
tp6684
Rp6685
g6
(g10
g833
tp6686
Rp6687
tp6688
I01
s(g6
(g10
g136
tp6689
Rp6690
g6
(g10
g331
tp6691
Rp6692
g6
(g10
g1123
tp6693
Rp6694
tp6695
I01
s(g6
(g10
g209
tp6696
Rp6697
g6
(g10
g1176
tp6698
Rp6699
g6
(g10
g143
tp6700
Rp6701
tp6702
I01
s(g6
(g10
g105
tp6703
Rp6704
g6
(g10
g410
tp6705
Rp6706
g6
(g10
g35
tp6707
Rp6708
tp6709
I01
s(g6
(g10
g32
tp6710
Rp6711
g6
(g10
g393
tp6712
Rp6713
g6
(g10
g1329
tp6714
Rp6715
tp6716
I01
s(g6
(g10
g52
tp6717
Rp6718
g6
(g10
g215
tp6719
Rp6720
g6
(g10
g1518
tp6721
Rp6722
tp6723
I01
s(g6
(g10
g52
tp6724
Rp6725
g6
(g10
g62
tp6726
Rp6727
g6
(g10
g2328
tp6728
Rp6729
tp6730
I01
s(g6
(g10
g774
tp6731
Rp6732
g6
(g10
g302
tp6733
Rp6734
g6
(g10
g1249
tp6735
Rp6736
tp6737
I01
s(g6
(g10
g136
tp6738
Rp6739
g6
(g10
g48
tp6740
Rp6741
g6
(g10
g1249
tp6742
Rp6743
tp6744
I01
s(g6
(g10
g169
tp6745
Rp6746
g6
(g10
g25
tp6747
Rp6748
g6
(g10
g2536
tp6749
Rp6750
tp6751
I01
s(g6
(g10
g95
tp6752
Rp6753
g6
(g10
g627
tp6754
Rp6755
g6
(g10
g259
tp6756
Rp6757
tp6758
I01
s(g6
(g10
g376
tp6759
Rp6760
g6
(g10
g331
tp6761
Rp6762
g6
(g10
S's'
p6763
tp6764
Rp6765
tp6766
I01
s(g6
(g10
g95
tp6767
Rp6768
g6
(g10
g136
tp6769
Rp6770
g6
(g10
g487
tp6771
Rp6772
tp6773
I01
s(g6
(g10
g42
tp6774
Rp6775
g6
(g10
g302
tp6776
Rp6777
g6
(g10
g1790
tp6778
Rp6779
tp6780
I01
s(g6
(g10
g52
tp6781
Rp6782
g6
(g10
g376
tp6783
Rp6784
g6
(g10
g2058
tp6785
Rp6786
tp6787
I01
s(g6
(g10
g105
tp6788
Rp6789
g6
(g10
g716
tp6790
Rp6791
g6
(g10
g201
tp6792
Rp6793
tp6794
I01
s(g6
(g10
g95
tp6795
Rp6796
g6
(g10
g733
tp6797
Rp6798
g6
(g10
g2536
tp6799
Rp6800
tp6801
I01
s(g6
(g10
g13
tp6802
Rp6803
g6
(g10
g62
tp6804
Rp6805
g6
(g10
g2427
tp6806
Rp6807
tp6808
I01
s(g6
(g10
g95
tp6809
Rp6810
g6
(g10
g45
tp6811
Rp6812
g6
(g10
g101
tp6813
Rp6814
tp6815
I01
s(g6
(g10
g105
tp6816
Rp6817
g6
(g10
g716
tp6818
Rp6819
g6
(g10
g1719
tp6820
Rp6821
tp6822
I01
s(g6
(g10
g209
tp6823
Rp6824
g6
(g10
g557
tp6825
Rp6826
g6
(g10
g658
tp6827
Rp6828
tp6829
I01
s(g6
(g10
g266
tp6830
Rp6831
g6
(g10
g467
tp6832
Rp6833
g6
(g10
g71
tp6834
Rp6835
tp6836
I01
s(g6
(g10
g209
tp6837
Rp6838
g6
(g10
g280
tp6839
Rp6840
g6
(g10
g16
tp6841
Rp6842
tp6843
I01
s(g6
(g10
g209
tp6844
Rp6845
g6
(g10
g331
tp6846
Rp6847
g6
(g10
g302
tp6848
Rp6849
tp6850
I01
s(g6
(g10
g136
tp6851
Rp6852
g6
(g10
g759
tp6853
Rp6854
g6
(g10
g533
tp6855
Rp6856
tp6857
I01
s(g6
(g10
g136
tp6858
Rp6859
g6
(g10
g280
tp6860
Rp6861
g6
(g10
g533
tp6862
Rp6863
tp6864
I01
s(g6
(g10
g143
tp6865
Rp6866
g6
(g10
g71
tp6867
Rp6868
g6
(g10
g1108
tp6869
Rp6870
tp6871
I01
s(g6
(g10
g95
tp6872
Rp6873
g6
(g10
g127
tp6874
Rp6875
g6
(g10
g396
tp6876
Rp6877
tp6878
I01
s(g6
(g10
g105
tp6879
Rp6880
g6
(g10
g346
tp6881
Rp6882
g6
(g10
g280
tp6883
Rp6884
tp6885
I01
s(g6
(g10
g77
tp6886
Rp6887
g6
(g10
g331
tp6888
Rp6889
g6
(g10
g774
tp6890
Rp6891
tp6892
I01
s(g6
(g10
g105
tp6893
Rp6894
g6
(g10
g280
tp6895
Rp6896
g6
(g10
g2435
tp6897
Rp6898
tp6899
I01
s(g6
(g10
g52
tp6900
Rp6901
g6
(g10
g376
tp6902
Rp6903
g6
(g10
g32
tp6904
Rp6905
tp6906
I01
s(g6
(g10
g32
tp6907
Rp6908
g6
(g10
g108
tp6909
Rp6910
g6
(g10
g346
tp6911
Rp6912
tp6913
I01
s(g6
(g10
g95
tp6914
Rp6915
g6
(g10
g1063
tp6916
Rp6917
g6
(g10
g2221
tp6918
Rp6919
tp6920
I01
s(g6
(g10
g95
tp6921
Rp6922
g6
(g10
g476
tp6923
Rp6924
g6
(g10
g864
tp6925
Rp6926
tp6927
I01
s(g6
(g10
g13
tp6928
Rp6929
g6
(g10
g1831
tp6930
Rp6931
g6
(g10
g419
tp6932
Rp6933
tp6934
I01
s(g6
(g10
g32
tp6935
Rp6936
g6
(g10
g181
tp6937
Rp6938
g6
(g10
g2558
tp6939
Rp6940
tp6941
I01
s(g6
(g10
g169
tp6942
Rp6943
g6
(g10
g573
tp6944
Rp6945
g6
(g10
g719
tp6946
Rp6947
tp6948
I01
s(g6
(g10
g105
tp6949
Rp6950
g6
(g10
g172
tp6951
Rp6952
g6
(g10
g149
tp6953
Rp6954
tp6955
I01
s(g6
(g10
g188
tp6956
Rp6957
g6
(g10
g413
tp6958
Rp6959
g6
(g10
g770
tp6960
Rp6961
tp6962
I01
s(g6
(g10
g77
tp6963
Rp6964
g6
(g10
g181
tp6965
Rp6966
g6
(g10
g3957
tp6967
Rp6968
tp6969
I01
s(g6
(g10
g13
tp6970
Rp6971
g6
(g10
g280
tp6972
Rp6973
g6
(g10
g5634
tp6974
Rp6975
tp6976
I01
s(g6
(g10
g105
tp6977
Rp6978
g6
(g10
g80
tp6979
Rp6980
g6
(g10
S' '
p6981
tp6982
Rp6983
tp6984
I01
s(g6
(g10
g95
tp6985
Rp6986
g6
(g10
g419
tp6987
Rp6988
g6
(g10
g573
tp6989
Rp6990
tp6991
I01
s(g6
(g10
g77
tp6992
Rp6993
g6
(g10
g1831
tp6994
Rp6995
g6
(g10
g98
tp6996
Rp6997
tp6998
I01
s(g6
(g10
g52
tp6999
Rp7000
g6
(g10
g744
tp7001
Rp7002
g6
(g10
g218
tp7003
Rp7004
tp7005
I01
s(g6
(g10
g52
tp7006
Rp7007
g6
(g10
g467
tp7008
Rp7009
g6
(g10
g493
tp7010
Rp7011
tp7012
I01
s(g6
(g10
g136
tp7013
Rp7014
g6
(g10
g136
tp7015
Rp7016
g6
(g10
g533
tp7017
Rp7018
tp7019
I01
s(g6
(g10
g95
tp7020
Rp7021
g6
(g10
g62
tp7022
Rp7023
g6
(g10
g3624
tp7024
Rp7025
tp7026
I01
s(g6
(g10
g136
tp7027
Rp7028
g6
(g10
g71
tp7029
Rp7030
g6
(g10
g1374
tp7031
Rp7032
tp7033
I01
s(g6
(g10
g136
tp7034
Rp7035
g6
(g10
g1063
tp7036
Rp7037
g6
(g10
g716
tp7038
Rp7039
tp7040
I01
s(g6
(g10
g143
tp7041
Rp7042
g6
(g10
g716
tp7043
Rp7044
g6
(g10
g627
tp7045
Rp7046
tp7047
I01
s(g6
(g10
g136
tp7048
Rp7049
g6
(g10
g19
tp7050
Rp7051
g6
(g10
g750
tp7052
Rp7053
tp7054
I01
s(g6
(g10
g13
tp7055
Rp7056
g6
(g10
g484
tp7057
Rp7058
g6
(g10
g536
tp7059
Rp7060
tp7061
I01
s(g6
(g10
g52
tp7062
Rp7063
g6
(g10
g13
tp7064
Rp7065
g6
(g10
g1841
tp7066
Rp7067
tp7068
I01
s(g6
(g10
g105
tp7069
Rp7070
g6
(g10
g453
tp7071
Rp7072
g6
(g10
g269
tp7073
Rp7074
tp7075
I01
s(g6
(g10
g105
tp7076
Rp7077
g6
(g10
g280
tp7078
Rp7079
g6
(g10
g762
tp7080
Rp7081
tp7082
I01
s(g6
(g10
g52
tp7083
Rp7084
g6
(g10
g376
tp7085
Rp7086
g6
(g10
g1790
tp7087
Rp7088
tp7089
I01
s(g6
(g10
g95
tp7090
Rp7091
g6
(g10
g48
tp7092
Rp7093
g6
(g10
g759
tp7094
Rp7095
tp7096
I01
s(g6
(g10
g52
tp7097
Rp7098
g6
(g10
g624
tp7099
Rp7100
g6
(g10
g32
tp7101
Rp7102
tp7103
I01
s(g6
(g10
g13
tp7104
Rp7105
g6
(g10
g269
tp7106
Rp7107
g6
(g10
g502
tp7108
Rp7109
tp7110
I01
s(g6
(g10
g155
tp7111
Rp7112
g6
(g10
g396
tp7113
Rp7114
g6
(g10
g487
tp7115
Rp7116
tp7117
I01
s(g6
(g10
g13
tp7118
Rp7119
g6
(g10
g71
tp7120
Rp7121
g6
(g10
g19
tp7122
Rp7123
tp7124
I01
s(g6
(g10
g13
tp7125
Rp7126
g6
(g10
g1176
tp7127
Rp7128
g6
(g10
g5634
tp7129
Rp7130
tp7131
I01
s(g6
(g10
g77
tp7132
Rp7133
g6
(g10
g62
tp7134
Rp7135
g6
(g10
g259
tp7136
Rp7137
tp7138
I01
s(g6
(g10
g209
tp7139
Rp7140
g6
(g10
g744
tp7141
Rp7142
g6
(g10
g671
tp7143
Rp7144
tp7145
I01
s(g6
(g10
g169
tp7146
Rp7147
g6
(g10
g410
tp7148
Rp7149
g6
(g10
g777
tp7150
Rp7151
tp7152
I01
s(g6
(g10
g169
tp7153
Rp7154
g6
(g10
g1831
tp7155
Rp7156
g6
(g10
g643
tp7157
Rp7158
tp7159
I01
s(g6
(g10
g95
tp7160
Rp7161
g6
(g10
g493
tp7162
Rp7163
g6
(g10
g88
tp7164
Rp7165
tp7166
I01
s(g6
(g10
g774
tp7167
Rp7168
g6
(g10
g88
tp7169
Rp7170
g6
(g10
g533
tp7171
Rp7172
tp7173
I01
s(g6
(g10
g52
tp7174
Rp7175
g6
(g10
g98
tp7176
Rp7177
g6
(g10
g493
tp7178
Rp7179
tp7180
I01
s(g6
(g10
g13
tp7181
Rp7182
g6
(g10
g1063
tp7183
Rp7184
g6
(g10
g28
tp7185
Rp7186
tp7187
I01
s(g6
(g10
g105
tp7188
Rp7189
g6
(g10
g331
tp7190
Rp7191
g6
(g10
g1719
tp7192
Rp7193
tp7194
I01
s(g6
(g10
g266
tp7195
Rp7196
g6
(g10
g25
tp7197
Rp7198
g6
(g10
g13
tp7199
Rp7200
tp7201
I01
s(g6
(g10
g232
tp7202
Rp7203
g6
(g10
g280
tp7204
Rp7205
g6
(g10
g384
tp7206
Rp7207
tp7208
I01
s(g6
(g10
g188
tp7209
Rp7210
g6
(g10
g25
tp7211
Rp7212
g6
(g10
g6981
tp7213
Rp7214
tp7215
I01
s(g6
(g10
g169
tp7216
Rp7217
g6
(g10
g293
tp7218
Rp7219
g6
(g10
g305
tp7220
Rp7221
tp7222
I01
s(g6
(g10
g774
tp7223
Rp7224
g6
(g10
g52
tp7225
Rp7226
g6
(g10
g1123
tp7227
Rp7228
tp7229
I01
s(g6
(g10
g232
tp7230
Rp7231
g6
(g10
g302
tp7232
Rp7233
g6
(g10
g802
tp7234
Rp7235
tp7236
I01
s(g6
(g10
g232
tp7237
Rp7238
g6
(g10
g484
tp7239
Rp7240
g6
(g10
g533
tp7241
Rp7242
tp7243
I01
s(g6
(g10
g52
tp7244
Rp7245
g6
(g10
g716
tp7246
Rp7247
g6
(g10
g25
tp7248
Rp7249
tp7250
I01
s(g6
(g10
g13
tp7251
Rp7252
g6
(g10
g95
tp7253
Rp7254
g6
(g10
g2427
tp7255
Rp7256
tp7257
I01
s(g6
(g10
g95
tp7258
Rp7259
g6
(g10
g624
tp7260
Rp7261
g6
(g10
g759
tp7262
Rp7263
tp7264
I01
s(g6
(g10
g209
tp7265
Rp7266
g6
(g10
g413
tp7267
Rp7268
g6
(g10
g272
tp7269
Rp7270
tp7271
I01
s(g6
(g10
g42
tp7272
Rp7273
g6
(g10
g172
tp7274
Rp7275
g6
(g10
g560
tp7276
Rp7277
tp7278
I01
s(g6
(g10
g209
tp7279
Rp7280
g6
(g10
g71
tp7281
Rp7282
g6
(g10
g4169
tp7283
Rp7284
tp7285
I01
s(g6
(g10
g105
tp7286
Rp7287
g6
(g10
g573
tp7288
Rp7289
g6
(g10
g1719
tp7290
Rp7291
tp7292
I01
s(g6
(g10
g13
tp7293
Rp7294
g6
(g10
g1048
tp7295
Rp7296
g6
(g10
g1343
tp7297
Rp7298
tp7299
I01
s(g6
(g10
g169
tp7300
Rp7301
g6
(g10
g80
tp7302
Rp7303
g6
(g10
g1213
tp7304
Rp7305
tp7306
I01
s(g6
(g10
g13
tp7307
Rp7308
g6
(g10
g864
tp7309
Rp7310
g6
(g10
g2162
tp7311
Rp7312
tp7313
I01
s(g6
(g10
g105
tp7314
Rp7315
g6
(g10
g484
tp7316
Rp7317
g6
(g10
g2464
tp7318
Rp7319
tp7320
I01
s(g6
(g10
g95
tp7321
Rp7322
g6
(g10
g215
tp7323
Rp7324
g6
(g10
g2221
tp7325
Rp7326
tp7327
I01
s(g6
(g10
g136
tp7328
Rp7329
g6
(g10
g885
tp7330
Rp7331
g6
(g10
g384
tp7332
Rp7333
tp7334
I01
s(g6
(g10
g209
tp7335
Rp7336
g6
(g10
g296
tp7337
Rp7338
g6
(g10
g658
tp7339
Rp7340
tp7341
I01
s(g6
(g10
g52
tp7342
Rp7343
g6
(g10
g493
tp7344
Rp7345
g6
(g10
g1841
tp7346
Rp7347
tp7348
I01
s(g6
(g10
g95
tp7349
Rp7350
g6
(g10
g19
tp7351
Rp7352
g6
(g10
g52
tp7353
Rp7354
tp7355
I01
s(g6
(g10
g209
tp7356
Rp7357
g6
(g10
g52
tp7358
Rp7359
g6
(g10
g833
tp7360
Rp7361
tp7362
I01
s(g6
(g10
g13
tp7363
Rp7364
g6
(g10
g376
tp7365
Rp7366
g6
(g10
g302
tp7367
Rp7368
tp7369
I01
s(g6
(g10
g143
tp7370
Rp7371
g6
(g10
g293
tp7372
Rp7373
g6
(g10
g266
tp7374
Rp7375
tp7376
I01
s(g6
(g10
g32
tp7377
Rp7378
g6
(g10
g35
tp7379
Rp7380
g6
(g10
g1168
tp7381
Rp7382
tp7383
I01
s(g6
(g10
g105
tp7384
Rp7385
g6
(g10
g296
tp7386
Rp7387
g6
(g10
g149
tp7388
Rp7389
tp7390
I01
s(g6
(g10
g13
tp7391
Rp7392
g6
(g10
g1063
tp7393
Rp7394
g6
(g10
g551
tp7395
Rp7396
tp7397
I01
s(g6
(g10
g13
tp7398
Rp7399
g6
(g10
g413
tp7400
Rp7401
g6
(g10
g736
tp7402
Rp7403
tp7404
I01
s(g6
(g10
g2162
tp7405
Rp7406
g6
(g10
g340
tp7407
Rp7408
g6
(g10
g533
tp7409
Rp7410
tp7411
I01
s(g6
(g10
g209
tp7412
Rp7413
g6
(g10
g155
tp7414
Rp7415
g6
(g10
g4169
tp7416
Rp7417
tp7418
I01
s(g6
(g10
g188
tp7419
Rp7420
g6
(g10
g453
tp7421
Rp7422
g6
(g10
g2464
tp7423
Rp7424
tp7425
I01
s(g6
(g10
g13
tp7426
Rp7427
g6
(g10
g340
tp7428
Rp7429
g6
(g10
g71
tp7430
Rp7431
tp7432
I01
s(g6
(g10
g42
tp7433
Rp7434
g6
(g10
g502
tp7435
Rp7436
g6
(g10
g215
tp7437
Rp7438
tp7439
I01
s(g6
(g10
g105
tp7440
Rp7441
g6
(g10
g101
tp7442
Rp7443
g6
(g10
g201
tp7444
Rp7445
tp7446
I01
s(g6
(g10
g188
tp7447
Rp7448
g6
(g10
g35
tp7449
Rp7450
g6
(g10
g2965
tp7451
Rp7452
tp7453
I01
s(g6
(g10
g95
tp7454
Rp7455
g6
(g10
g331
tp7456
Rp7457
g6
(g10
g305
tp7458
Rp7459
tp7460
I01
s(g6
(g10
g136
tp7461
Rp7462
g6
(g10
g296
tp7463
Rp7464
g6
(g10
g363
tp7465
Rp7466
tp7467
I01
s(g6
(g10
g169
tp7468
Rp7469
g6
(g10
g98
tp7470
Rp7471
g6
(g10
g188
tp7472
Rp7473
tp7474
I01
s(g6
(g10
g266
tp7475
Rp7476
g6
(g10
g493
tp7477
Rp7478
g6
(g10
g2162
tp7479
Rp7480
tp7481
I01
s(g6
(g10
g13
tp7482
Rp7483
g6
(g10
g95
tp7484
Rp7485
g6
(g10
g1063
tp7486
Rp7487
tp7488
I01
s(g6
(g10
g105
tp7489
Rp7490
g6
(g10
g35
tp7491
Rp7492
g6
(g10
g1489
tp7493
Rp7494
tp7495
I01
s(g6
(g10
g77
tp7496
Rp7497
g6
(g10
g525
tp7498
Rp7499
g6
(g10
g98
tp7500
Rp7501
tp7502
I01
s(g6
(g10
g232
tp7503
Rp7504
g6
(g10
g331
tp7505
Rp7506
g6
(g10
g340
tp7507
Rp7508
tp7509
I01
s(g6
(g10
g136
tp7510
Rp7511
g6
(g10
g453
tp7512
Rp7513
g6
(g10
g3816
tp7514
Rp7515
tp7516
I01
s(g6
(g10
g13
tp7517
Rp7518
g6
(g10
g493
tp7519
Rp7520
g6
(g10
g272
tp7521
Rp7522
tp7523
I01
s(g6
(g10
g95
tp7524
Rp7525
g6
(g10
g830
tp7526
Rp7527
g6
(g10
g413
tp7528
Rp7529
tp7530
I01
s(g6
(g10
g13
tp7531
Rp7532
g6
(g10
g1176
tp7533
Rp7534
g6
(g10
g1611
tp7535
Rp7536
tp7537
I01
s(g6
(g10
g13
tp7538
Rp7539
g6
(g10
g108
tp7540
Rp7541
g6
(g10
g872
tp7542
Rp7543
tp7544
I01
s(g6
(g10
g232
tp7545
Rp7546
g6
(g10
g384
tp7547
Rp7548
g6
(g10
g6244
tp7549
Rp7550
tp7551
I01
s(g6
(g10
g105
tp7552
Rp7553
g6
(g10
g744
tp7554
Rp7555
g6
(g10
g6981
tp7556
Rp7557
tp7558
I01
s(g6
(g10
g42
tp7559
Rp7560
g6
(g10
g320
tp7561
Rp7562
g6
(g10
g91
tp7563
Rp7564
tp7565
I01
s(g6
(g10
g52
tp7566
Rp7567
g6
(g10
g184
tp7568
Rp7569
g6
(g10
g215
tp7570
Rp7571
tp7572
I01
s(g6
(g10
g95
tp7573
Rp7574
g6
(g10
g296
tp7575
Rp7576
g6
(g10
g127
tp7577
Rp7578
tp7579
I01
s(g6
(g10
g169
tp7580
Rp7581
g6
(g10
g1048
tp7582
Rp7583
g6
(g10
g188
tp7584
Rp7585
tp7586
I01
s(g6
(g10
g42
tp7587
Rp7588
g6
(g10
g181
tp7589
Rp7590
g6
(g10
g1934
tp7591
Rp7592
tp7593
I01
s(g6
(g10
g52
tp7594
Rp7595
g6
(g10
g293
tp7596
Rp7597
g6
(g10
g1176
tp7598
Rp7599
tp7600
I01
s(g6
(g10
g95
tp7601
Rp7602
g6
(g10
g25
tp7603
Rp7604
g6
(g10
g188
tp7605
Rp7606
tp7607
I01
s(g6
(g10
g105
tp7608
Rp7609
g6
(g10
g105
tp7610
Rp7611
g6
(g10
g624
tp7612
Rp7613
tp7614
I01
s(g6
(g10
g105
tp7615
Rp7616
g6
(g10
g453
tp7617
Rp7618
g6
(g10
g136
tp7619
Rp7620
tp7621
I01
s(g6
(g10
g52
tp7622
Rp7623
g6
(g10
g1063
tp7624
Rp7625
g6
(g10
g346
tp7626
Rp7627
tp7628
I01
s(g6
(g10
g95
tp7629
Rp7630
g6
(g10
g101
tp7631
Rp7632
g6
(g10
g719
tp7633
Rp7634
tp7635
I01
s(g6
(g10
g266
tp7636
Rp7637
g6
(g10
g293
tp7638
Rp7639
g6
(g10
g1048
tp7640
Rp7641
tp7642
I01
s(g6
(g10
g105
tp7643
Rp7644
g6
(g10
g331
tp7645
Rp7646
g6
(g10
g1152
tp7647
Rp7648
tp7649
I01
s(g6
(g10
g188
tp7650
Rp7651
g6
(g10
g311
tp7652
Rp7653
g6
(g10
g222
tp7654
Rp7655
tp7656
I01
s(g6
(g10
g232
tp7657
Rp7658
g6
(g10
g320
tp7659
Rp7660
g6
(g10
g750
tp7661
Rp7662
tp7663
I01
s(g6
(g10
g32
tp7664
Rp7665
g6
(g10
g517
tp7666
Rp7667
g6
(g10
g1984
tp7668
Rp7669
tp7670
I01
s(g6
(g10
g169
tp7671
Rp7672
g6
(g10
g98
tp7673
Rp7674
g6
(g10
g2536
tp7675
Rp7676
tp7677
I01
s(g6
(g10
g105
tp7678
Rp7679
g6
(g10
g830
tp7680
Rp7681
g6
(g10
g149
tp7682
Rp7683
tp7684
I01
s(g6
(g10
g209
tp7685
Rp7686
g6
(g10
g35
tp7687
Rp7688
g6
(g10
g71
tp7689
Rp7690
tp7691
I01
s(g6
(g10
g105
tp7692
Rp7693
g6
(g10
g302
tp7694
Rp7695
g6
(g10
g1205
tp7696
Rp7697
tp7698
I01
s(g6
(g10
g52
tp7699
Rp7700
g6
(g10
g627
tp7701
Rp7702
g6
(g10
g453
tp7703
Rp7704
tp7705
I01
s(g6
(g10
g105
tp7706
Rp7707
g6
(g10
g502
tp7708
Rp7709
g6
(g10
g3043
tp7710
Rp7711
tp7712
I01
s(g6
(g10
g13
tp7713
Rp7714
g6
(g10
g311
tp7715
Rp7716
g6
(g10
g1481
tp7717
Rp7718
tp7719
I01
s(g6
(g10
g95
tp7720
Rp7721
g6
(g10
g557
tp7722
Rp7723
g6
(g10
g175
tp7724
Rp7725
tp7726
I01
s(g6
(g10
g13
tp7727
Rp7728
g6
(g10
g146
tp7729
Rp7730
g6
(g10
g62
tp7731
Rp7732
tp7733
I01
s(g6
(g10
g105
tp7734
Rp7735
g6
(g10
g101
tp7736
Rp7737
g6
(g10
g1719
tp7738
Rp7739
tp7740
I01
s(g6
(g10
g169
tp7741
Rp7742
g6
(g10
g864
tp7743
Rp7744
g6
(g10
g2320
tp7745
Rp7746
tp7747
I01
s(g6
(g10
g52
tp7748
Rp7749
g6
(g10
g127
tp7750
Rp7751
g6
(g10
g437
tp7752
Rp7753
tp7754
I01
s(g6
(g10
g32
tp7755
Rp7756
g6
(g10
g573
tp7757
Rp7758
g6
(g10
g2328
tp7759
Rp7760
tp7761
I01
s(g6
(g10
g266
tp7762
Rp7763
g6
(g10
g95
tp7764
Rp7765
g6
(g10
g1048
tp7766
Rp7767
tp7768
I01
s(g6
(g10
g32
tp7769
Rp7770
g6
(g10
g557
tp7771
Rp7772
g6
(g10
g2328
tp7773
Rp7774
tp7775
I01
s(g6
(g10
g232
tp7776
Rp7777
g6
(g10
g484
tp7778
Rp7779
g6
(g10
g2084
tp7780
Rp7781
tp7782
I01
s(g6
(g10
g209
tp7783
Rp7784
g6
(g10
g340
tp7785
Rp7786
g6
(g10
g13
tp7787
Rp7788
tp7789
I01
s(g6
(g10
g136
tp7790
Rp7791
g6
(g10
g35
tp7792
Rp7793
g6
(g10
g716
tp7794
Rp7795
tp7796
I01
s(g6
(g10
g105
tp7797
Rp7798
g6
(g10
g146
tp7799
Rp7800
g6
(g10
g108
tp7801
Rp7802
tp7803
I01
s(g6
(g10
g95
tp7804
Rp7805
g6
(g10
g146
tp7806
Rp7807
g6
(g10
g1711
tp7808
Rp7809
tp7810
I01
s(g6
(g10
g13
tp7811
Rp7812
g6
(g10
g557
tp7813
Rp7814
g6
(g10
g2658
tp7815
Rp7816
tp7817
I01
s(g6
(g10
g209
tp7818
Rp7819
g6
(g10
g517
tp7820
Rp7821
g6
(g10
g158
tp7822
Rp7823
tp7824
I01
s(g6
(g10
g105
tp7825
Rp7826
g6
(g10
g484
tp7827
Rp7828
g6
(g10
g770
tp7829
Rp7830
tp7831
I01
s(g6
(g10
g42
tp7832
Rp7833
g6
(g10
g105
tp7834
Rp7835
g6
(g10
g48
tp7836
Rp7837
tp7838
I01
s(g6
(g10
g95
tp7839
Rp7840
g6
(g10
g453
tp7841
Rp7842
g6
(g10
g1213
tp7843
Rp7844
tp7845
I01
s(g6
(g10
g136
tp7846
Rp7847
g6
(g10
g393
tp7848
Rp7849
g6
(g10
g4154
tp7850
Rp7851
tp7852
I01
s(g6
(g10
g52
tp7853
Rp7854
g6
(g10
g19
tp7855
Rp7856
g6
(g10
g2594
tp7857
Rp7858
tp7859
I01
s(g6
(g10
g95
tp7860
Rp7861
g6
(g10
g671
tp7862
Rp7863
g6
(g10
g864
tp7864
Rp7865
tp7866
I01
s(g6
(g10
g136
tp7867
Rp7868
g6
(g10
g777
tp7869
Rp7870
g6
(g10
g1249
tp7871
Rp7872
tp7873
I01
s(g6
(g10
g136
tp7874
Rp7875
g6
(g10
g671
tp7876
Rp7877
g6
(g10
g6244
tp7878
Rp7879
tp7880
I01
s(g6
(g10
g105
tp7881
Rp7882
g6
(g10
g716
tp7883
Rp7884
g6
(g10
g1152
tp7885
Rp7886
tp7887
I01
s(g6
(g10
g42
tp7888
Rp7889
g6
(g10
g885
tp7890
Rp7891
g6
(g10
g1033
tp7892
Rp7893
tp7894
I01
s(g6
(g10
g266
tp7895
Rp7896
g6
(g10
g25
tp7897
Rp7898
g6
(g10
g671
tp7899
Rp7900
tp7901
I01
s(g6
(g10
g209
tp7902
Rp7903
g6
(g10
g1831
tp7904
Rp7905
g6
(g10
g1048
tp7906
Rp7907
tp7908
I01
s(g6
(g10
g105
tp7909
Rp7910
g6
(g10
g13
tp7911
Rp7912
g6
(g10
g525
tp7913
Rp7914
tp7915
I01
s(g6
(g10
g105
tp7916
Rp7917
g6
(g10
g624
tp7918
Rp7919
g6
(g10
g266
tp7920
Rp7921
tp7922
I01
s(g6
(g10
g32
tp7923
Rp7924
g6
(g10
g331
tp7925
Rp7926
g6
(g10
g32
tp7927
Rp7928
tp7929
I01
s(g6
(g10
g105
tp7930
Rp7931
g6
(g10
g269
tp7932
Rp7933
g6
(g10
g6981
tp7934
Rp7935
tp7936
I01
s(g6
(g10
g77
tp7937
Rp7938
g6
(g10
g557
tp7939
Rp7940
g6
(g10
g262
tp7941
Rp7942
tp7943
I01
s(g6
(g10
g13
tp7944
Rp7945
g6
(g10
g88
tp7946
Rp7947
g6
(g10
g736
tp7948
Rp7949
tp7950
I01
s(g6
(g10
g13
tp7951
Rp7952
g6
(g10
g453
tp7953
Rp7954
g6
(g10
g671
tp7955
Rp7956
tp7957
I01
s(g6
(g10
g52
tp7958
Rp7959
g6
(g10
g48
tp7960
Rp7961
g6
(g10
g32
tp7962
Rp7963
tp7964
I01
s(g6
(g10
g188
tp7965
Rp7966
g6
(g10
g525
tp7967
Rp7968
g6
(g10
g320
tp7969
Rp7970
tp7971
I01
s(g6
(g10
g77
tp7972
Rp7973
g6
(g10
g557
tp7974
Rp7975
g6
(g10
g404
tp7976
Rp7977
tp7978
I01
s(g6
(g10
g232
tp7979
Rp7980
g6
(g10
g88
tp7981
Rp7982
g6
(g10
g496
tp7983
Rp7984
tp7985
I01
s(g6
(g10
g95
tp7986
Rp7987
g6
(g10
g80
tp7988
Rp7989
g6
(g10
g2857
tp7990
Rp7991
tp7992
I01
s(g6
(g10
g95
tp7993
Rp7994
g6
(g10
g419
tp7995
Rp7996
g6
(g10
g2175
tp7997
Rp7998
tp7999
I01
s(g6
(g10
g105
tp8000
Rp8001
g6
(g10
g733
tp8002
Rp8003
g6
(g10
g6981
tp8004
Rp8005
tp8006
I01
s(g6
(g10
g13
tp8007
Rp8008
g6
(g10
g108
tp8009
Rp8010
g6
(g10
g3342
tp8011
Rp8012
tp8013
I01
s(g6
(g10
g143
tp8014
Rp8015
g6
(g10
g19
tp8016
Rp8017
g6
(g10
g3043
tp8018
Rp8019
tp8020
I01
s(g6
(g10
g52
tp8021
Rp8022
g6
(g10
g184
tp8023
Rp8024
g6
(g10
g314
tp8025
Rp8026
tp8027
I01
s(g6
(g10
g95
tp8028
Rp8029
g6
(g10
g627
tp8030
Rp8031
g6
(g10
g98
tp8032
Rp8033
tp8034
I01
s(g6
(g10
g266
tp8035
Rp8036
g6
(g10
g885
tp8037
Rp8038
g6
(g10
g42
tp8039
Rp8040
tp8041
I01
s(g6
(g10
g136
tp8042
Rp8043
g6
(g10
g864
tp8044
Rp8045
g6
(g10
g184
tp8046
Rp8047
tp8048
I01
s(g6
(g10
g143
tp8049
Rp8050
g6
(g10
g172
tp8051
Rp8052
g6
(g10
g201
tp8053
Rp8054
tp8055
I01
s(g6
(g10
g52
tp8056
Rp8057
g6
(g10
g45
tp8058
Rp8059
g6
(g10
g830
tp8060
Rp8061
tp8062
I01
s(g6
(g10
g42
tp8063
Rp8064
g6
(g10
g314
tp8065
Rp8066
g6
(g10
g2558
tp8067
Rp8068
tp8069
I01
s(g6
(g10
g136
tp8070
Rp8071
g6
(g10
g101
tp8072
Rp8073
g6
(g10
g1123
tp8074
Rp8075
tp8076
I01
s(g6
(g10
g232
tp8077
Rp8078
g6
(g10
g269
tp8079
Rp8080
g6
(g10
g3816
tp8081
Rp8082
tp8083
I01
s(g6
(g10
g42
tp8084
Rp8085
g6
(g10
g16
tp8086
Rp8087
g6
(g10
g1329
tp8088
Rp8089
tp8090
I01
s(g6
(g10
g232
tp8091
Rp8092
g6
(g10
g13
tp8093
Rp8094
g6
(g10
g2084
tp8095
Rp8096
tp8097
I01
s(g6
(g10
g42
tp8098
Rp8099
g6
(g10
g410
tp8100
Rp8101
g6
(g10
g25
tp8102
Rp8103
tp8104
I01
s(g6
(g10
g52
tp8105
Rp8106
g6
(g10
g413
tp8107
Rp8108
g6
(g10
g91
tp8109
Rp8110
tp8111
I01
s(g6
(g10
g232
tp8112
Rp8113
g6
(g10
g744
tp8114
Rp8115
g6
(g10
g750
tp8116
Rp8117
tp8118
I01
s(g6
(g10
g13
tp8119
Rp8120
g6
(g10
g52
tp8121
Rp8122
g6
(g10
g42
tp8123
Rp8124
tp8125
I01
s(g6
(g10
g95
tp8126
Rp8127
g6
(g10
g215
tp8128
Rp8129
g6
(g10
g188
tp8130
Rp8131
tp8132
I01
s(g6
(g10
g42
tp8133
Rp8134
g6
(g10
g493
tp8135
Rp8136
g6
(g10
g376
tp8137
Rp8138
tp8139
I01
s(g6
(g10
g52
tp8140
Rp8141
g6
(g10
g105
tp8142
Rp8143
g6
(g10
g121
tp8144
Rp8145
tp8146
I01
s(g6
(g10
g209
tp8147
Rp8148
g6
(g10
g98
tp8149
Rp8150
g6
(g10
g1092
tp8151
Rp8152
tp8153
I01
s(g6
(g10
g136
tp8154
Rp8155
g6
(g10
g45
tp8156
Rp8157
g6
(g10
g6244
tp8158
Rp8159
tp8160
I01
s(g6
(g10
g136
tp8161
Rp8162
g6
(g10
g476
tp8163
Rp8164
g6
(g10
g6244
tp8165
Rp8166
tp8167
I01
s(g6
(g10
g4975
tp8168
Rp8169
g6
(g10
g266
tp8170
Rp8171
g6
(g10
g320
tp8172
Rp8173
tp8174
I01
s(g6
(g10
g774
tp8175
Rp8176
g6
(g10
g733
tp8177
Rp8178
g6
(g10
g2814
tp8179
Rp8180
tp8181
I01
s(g6
(g10
g188
tp8182
Rp8183
g6
(g10
g453
tp8184
Rp8185
g6
(g10
g525
tp8186
Rp8187
tp8188
I01
s(g6
(g10
g13
tp8189
Rp8190
g6
(g10
g80
tp8191
Rp8192
g6
(g10
g28
tp8193
Rp8194
tp8195
I01
s(g6
(g10
g52
tp8196
Rp8197
g6
(g10
g830
tp8198
Rp8199
g6
(g10
g560
tp8200
Rp8201
tp8202
I01
s(g6
(g10
g95
tp8203
Rp8204
g6
(g10
g101
tp8205
Rp8206
g6
(g10
g175
tp8207
Rp8208
tp8209
I01
s(g6
(g10
g42
tp8210
Rp8211
g6
(g10
g453
tp8212
Rp8213
g6
(g10
g91
tp8214
Rp8215
tp8216
I01
s(g6
(g10
g52
tp8217
Rp8218
g6
(g10
g184
tp8219
Rp8220
g6
(g10
g376
tp8221
Rp8222
tp8223
I01
s(g6
(g10
g95
tp8224
Rp8225
g6
(g10
g671
tp8226
Rp8227
g6
(g10
g101
tp8228
Rp8229
tp8230
I01
s(g6
(g10
g13
tp8231
Rp8232
g6
(g10
g13
tp8233
Rp8234
g6
(g10
g13
tp8235
Rp8236
tp8237
I01
s(g6
(g10
g105
tp8238
Rp8239
g6
(g10
g1048
tp8240
Rp8241
g6
(g10
g1654
tp8242
Rp8243
tp8244
I01
s(g6
(g10
g232
tp8245
Rp8246
g6
(g10
g16
tp8247
Rp8248
g6
(g10
g237
tp8249
Rp8250
tp8251
I01
s(g6
(g10
g95
tp8252
Rp8253
g6
(g10
g35
tp8254
Rp8255
g6
(g10
g188
tp8256
Rp8257
tp8258
I01
s(g6
(g10
g13
tp8259
Rp8260
g6
(g10
g493
tp8261
Rp8262
g6
(g10
g422
tp8263
Rp8264
tp8265
I01
s(g6
(g10
g136
tp8266
Rp8267
g6
(g10
g1831
tp8268
Rp8269
g6
(g10
g1160
tp8270
Rp8271
tp8272
I01
s(g6
(g10
g136
tp8273
Rp8274
g6
(g10
g1048
tp8275
Rp8276
g6
(g10
g6244
tp8277
Rp8278
tp8279
I01
s(g6
(g10
g13
tp8280
Rp8281
g6
(g10
g671
tp8282
Rp8283
g6
(g10
g3342
tp8284
Rp8285
tp8286
I01
s(g6
(g10
g105
tp8287
Rp8288
g6
(g10
g314
tp8289
Rp8290
g6
(g10
g108
tp8291
Rp8292
tp8293
I01
s(g6
(g10
g95
tp8294
Rp8295
g6
(g10
g453
tp8296
Rp8297
g6
(g10
g470
tp8298
Rp8299
tp8300
I01
s(g6
(g10
g136
tp8301
Rp8302
g6
(g10
g127
tp8303
Rp8304
g6
(g10
g184
tp8305
Rp8306
tp8307
I01
s(g6
(g10
g95
tp8308
Rp8309
g6
(g10
g48
tp8310
Rp8311
g6
(g10
g643
tp8312
Rp8313
tp8314
I01
s(g6
(g10
g136
tp8315
Rp8316
g6
(g10
g293
tp8317
Rp8318
g6
(g10
g3574
tp8319
Rp8320
tp8321
I01
s(g6
(g10
g232
tp8322
Rp8323
g6
(g10
g108
tp8324
Rp8325
g6
(g10
g780
tp8326
Rp8327
tp8328
I01
s(g6
(g10
g136
tp8329
Rp8330
g6
(g10
g320
tp8331
Rp8332
g6
(g10
g3816
tp8333
Rp8334
tp8335
I01
s(g6
(g10
g188
tp8336
Rp8337
g6
(g10
g337
tp8338
Rp8339
g6
(g10
g155
tp8340
Rp8341
tp8342
I01
s(g6
(g10
g13
tp8343
Rp8344
g6
(g10
g13
tp8345
Rp8346
g6
(g10
g536
tp8347
Rp8348
tp8349
I01
s(g6
(g10
g105
tp8350
Rp8351
g6
(g10
g484
tp8352
Rp8353
g6
(g10
g525
tp8354
Rp8355
tp8356
I01
s(g6
(g10
g136
tp8357
Rp8358
g6
(g10
g108
tp8359
Rp8360
g6
(g10
g3674
tp8361
Rp8362
tp8363
I01
s(g6
(g10
g232
tp8364
Rp8365
g6
(g10
g181
tp8366
Rp8367
g6
(g10
g4154
tp8368
Rp8369
tp8370
I01
s(g6
(g10
g169
tp8371
Rp8372
g6
(g10
g280
tp8373
Rp8374
g6
(g10
g139
tp8375
Rp8376
tp8377
I01
s(g6
(g10
g13
tp8378
Rp8379
g6
(g10
g269
tp8380
Rp8381
g6
(g10
g671
tp8382
Rp8383
tp8384
I01
s(g6
(g10
g95
tp8385
Rp8386
g6
(g10
g19
tp8387
Rp8388
g6
(g10
g1213
tp8389
Rp8390
tp8391
I01
s(g6
(g10
g13
tp8392
Rp8393
g6
(g10
g777
tp8394
Rp8395
g6
(g10
g2900
tp8396
Rp8397
tp8398
I01
s(g6
(g10
g774
tp8399
Rp8400
g6
(g10
g573
tp8401
Rp8402
g6
(g10
g2957
tp8403
Rp8404
tp8405
I01
s(g6
(g10
g95
tp8406
Rp8407
g6
(g10
g269
tp8408
Rp8409
g6
(g10
g470
tp8410
Rp8411
tp8412
I01
s(g6
(g10
g774
tp8413
Rp8414
g6
(g10
g98
tp8415
Rp8416
g6
(g10
g323
tp8417
Rp8418
tp8419
I01
s(g6
(g10
g52
tp8420
Rp8421
g6
(g10
g302
tp8422
Rp8423
g6
(g10
g2328
tp8424
Rp8425
tp8426
I01
s(g6
(g10
g95
tp8427
Rp8428
g6
(g10
g346
tp8429
Rp8430
g6
(g10
g3957
tp8431
Rp8432
tp8433
I01
s(g6
(g10
g52
tp8434
Rp8435
g6
(g10
g502
tp8436
Rp8437
g6
(g10
g376
tp8438
Rp8439
tp8440
I01
s(g6
(g10
g143
tp8441
Rp8442
g6
(g10
g413
tp8443
Rp8444
g6
(g10
g2435
tp8445
Rp8446
tp8447
I01
s(g6
(g10
g143
tp8448
Rp8449
g6
(g10
g293
tp8450
Rp8451
g6
(g10
g245
tp8452
Rp8453
tp8454
I01
s(g6
(g10
g136
tp8455
Rp8456
g6
(g10
g573
tp8457
Rp8458
g6
(g10
g1123
tp8459
Rp8460
tp8461
I01
s(g6
(g10
g169
tp8462
Rp8463
g6
(g10
g557
tp8464
Rp8465
g6
(g10
g719
tp8466
Rp8467
tp8468
I01
s(g6
(g10
g52
tp8469
Rp8470
g6
(g10
g136
tp8471
Rp8472
g6
(g10
g314
tp8473
Rp8474
tp8475
I01
s(g6
(g10
g95
tp8476
Rp8477
g6
(g10
g1063
tp8478
Rp8479
g6
(g10
g2536
tp8480
Rp8481
tp8482
I01
s(g6
(g10
g864
tp8483
Rp8484
g6
(g10
g2206
tp8485
Rp8486
g6
(g10
g1011
tp8487
Rp8488
tp8489
I01
s(g6
(g10
g52
tp8490
Rp8491
g6
(g10
g331
tp8492
Rp8493
g6
(g10
g1003
tp8494
Rp8495
tp8496
I01
s(g6
(g10
g13
tp8497
Rp8498
g6
(g10
g733
tp8499
Rp8500
g6
(g10
g71
tp8501
Rp8502
tp8503
I01
s(g6
(g10
g52
tp8504
Rp8505
g6
(g10
g476
tp8506
Rp8507
g6
(g10
g48
tp8508
Rp8509
tp8510
I01
s(g6
(g10
g77
tp8511
Rp8512
g6
(g10
g502
tp8513
Rp8514
g6
(g10
g139
tp8515
Rp8516
tp8517
I01
s(g6
(g10
g95
tp8518
Rp8519
g6
(g10
g98
tp8520
Rp8521
g6
(g10
g727
tp8522
Rp8523
tp8524
I01
s(g6
(g10
g105
tp8525
Rp8526
g6
(g10
g467
tp8527
Rp8528
g6
(g10
g461
tp8529
Rp8530
tp8531
I01
s(g6
(g10
g13
tp8532
Rp8533
g6
(g10
g573
tp8534
Rp8535
g6
(g10
g2658
tp8536
Rp8537
tp8538
I01
s(g6
(g10
g105
tp8539
Rp8540
g6
(g10
g88
tp8541
Rp8542
g6
(g10
g525
tp8543
Rp8544
tp8545
I01
s(g6
(g10
g52
tp8546
Rp8547
g6
(g10
g25
tp8548
Rp8549
g6
(g10
g3072
tp8550
Rp8551
tp8552
I01
s(g6
(g10
g169
tp8553
Rp8554
g6
(g10
g744
tp8555
Rp8556
g6
(g10
g1213
tp8557
Rp8558
tp8559
I01
s(g6
(g10
g232
tp8560
Rp8561
g6
(g10
g302
tp8562
Rp8563
g6
(g10
g2957
tp8564
Rp8565
tp8566
I01
s(g6
(g10
g136
tp8567
Rp8568
g6
(g10
g146
tp8569
Rp8570
g6
(g10
g4975
tp8571
Rp8572
tp8573
I01
s(g6
(g10
g77
tp8574
Rp8575
g6
(g10
g376
tp8576
Rp8577
g6
(g10
g864
tp8578
Rp8579
tp8580
I01
s(g6
(g10
g266
tp8581
Rp8582
g6
(g10
g744
tp8583
Rp8584
g6
(g10
g536
tp8585
Rp8586
tp8587
I01
s(g6
(g10
g52
tp8588
Rp8589
g6
(g10
g88
tp8590
Rp8591
g6
(g10
g1841
tp8592
Rp8593
tp8594
I01
s(g6
(g10
g52
tp8595
Rp8596
g6
(g10
g62
tp8597
Rp8598
g6
(g10
g1790
tp8599
Rp8600
tp8601
I01
s(g6
(g10
g209
tp8602
Rp8603
g6
(g10
g671
tp8604
Rp8605
g6
(g10
g1092
tp8606
Rp8607
tp8608
I01
s(g6
(g10
g136
tp8609
Rp8610
g6
(g10
g733
tp8611
Rp8612
g6
(g10
g311
tp8613
Rp8614
tp8615
I01
s(g6
(g10
g95
tp8616
Rp8617
g6
(g10
g184
tp8618
Rp8619
g6
(g10
g1011
tp8620
Rp8621
tp8622
I01
s(g6
(g10
g13
tp8623
Rp8624
g6
(g10
g28
tp8625
Rp8626
g6
(g10
g2900
tp8627
Rp8628
tp8629
I01
s(g6
(g10
g143
tp8630
Rp8631
g6
(g10
g476
tp8632
Rp8633
g6
(g10
g6981
tp8634
Rp8635
tp8636
I01
s(g6
(g10
g95
tp8637
Rp8638
g6
(g10
g557
tp8639
Rp8640
g6
(g10
g127
tp8641
Rp8642
tp8643
I01
s(g6
(g10
g52
tp8644
Rp8645
g6
(g10
g146
tp8646
Rp8647
g6
(g10
g437
tp8648
Rp8649
tp8650
I01
s(g6
(g10
g105
tp8651
Rp8652
g6
(g10
g2221
tp8653
Rp8654
g6
(g10
g753
tp8655
Rp8656
tp8657
I01
s(g6
(g10
g136
tp8658
Rp8659
g6
(g10
g413
tp8660
Rp8661
g6
(g10
g3816
tp8662
Rp8663
tp8664
I01
s(g6
(g10
g52
tp8665
Rp8666
g6
(g10
g1048
tp8667
Rp8668
g6
(g10
g48
tp8669
Rp8670
tp8671
I01
s(g6
(g10
g13
tp8672
Rp8673
g6
(g10
g453
tp8674
Rp8675
g6
(g10
g13
tp8676
Rp8677
tp8678
I01
s(g6
(g10
g136
tp8679
Rp8680
g6
(g10
g311
tp8681
Rp8682
g6
(g10
g293
tp8683
Rp8684
tp8685
I01
s(g6
(g10
g105
tp8686
Rp8687
g6
(g10
g331
tp8688
Rp8689
g6
(g10
g201
tp8690
Rp8691
tp8692
I01
s(g6
(g10
g105
tp8693
Rp8694
g6
(g10
g1048
tp8695
Rp8696
g6
(g10
g461
tp8697
Rp8698
tp8699
I01
s(g6
(g10
g136
tp8700
Rp8701
g6
(g10
g108
tp8702
Rp8703
g6
(g10
g1285
tp8704
Rp8705
tp8706
I01
s(g6
(g10
g95
tp8707
Rp8708
g6
(g10
g48
tp8709
Rp8710
g6
(g10
g774
tp8711
Rp8712
tp8713
I01
s(g6
(g10
g52
tp8714
Rp8715
g6
(g10
g181
tp8716
Rp8717
g6
(g10
g445
tp8718
Rp8719
tp8720
I01
s(g6
(g10
g52
tp8721
Rp8722
g6
(g10
g101
tp8723
Rp8724
g6
(g10
g1176
tp8725
Rp8726
tp8727
I01
s(g6
(g10
g95
tp8728
Rp8729
g6
(g10
g716
tp8730
Rp8731
g6
(g10
g1445
tp8732
Rp8733
tp8734
I01
s(g6
(g10
g774
tp8735
Rp8736
g6
(g10
g493
tp8737
Rp8738
g6
(g10
g293
tp8739
Rp8740
tp8741
I01
s(g6
(g10
g42
tp8742
Rp8743
g6
(g10
g98
tp8744
Rp8745
g6
(g10
g346
tp8746
Rp8747
tp8748
I01
s(g6
(g10
g52
tp8749
Rp8750
g6
(g10
g419
tp8751
Rp8752
g6
(g10
g376
tp8753
Rp8754
tp8755
I01
s(g6
(g10
g52
tp8756
Rp8757
g6
(g10
g71
tp8758
Rp8759
g6
(g10
g1934
tp8760
Rp8761
tp8762
I01
s(g6
(g10
g188
tp8763
Rp8764
g6
(g10
g346
tp8765
Rp8766
g6
(g10
g35
tp8767
Rp8768
tp8769
I01
s(g6
(g10
g52
tp8770
Rp8771
g6
(g10
g101
tp8772
Rp8773
g6
(g10
g25
tp8774
Rp8775
tp8776
I01
s(g6
(g10
g105
tp8777
Rp8778
g6
(g10
g80
tp8779
Rp8780
g6
(g10
g2965
tp8781
Rp8782
tp8783
I01
s(g6
(g10
g95
tp8784
Rp8785
g6
(g10
g744
tp8786
Rp8787
g6
(g10
g2536
tp8788
Rp8789
tp8790
I01
s(g6
(g10
g52
tp8791
Rp8792
g6
(g10
g105
tp8793
Rp8794
g6
(g10
g635
tp8795
Rp8796
tp8797
I01
s(g6
(g10
g136
tp8798
Rp8799
g6
(g10
g16
tp8800
Rp8801
g6
(g10
g1374
tp8802
Rp8803
tp8804
I01
s(g6
(g10
g13
tp8805
Rp8806
g6
(g10
g557
tp8807
Rp8808
g6
(g10
g833
tp8809
Rp8810
tp8811
I01
s(g6
(g10
g188
tp8812
Rp8813
g6
(g10
g136
tp8814
Rp8815
g6
(g10
g1340
tp8816
Rp8817
tp8818
I01
s(g6
(g10
g105
tp8819
Rp8820
g6
(g10
g525
tp8821
Rp8822
g6
(g10
g627
tp8823
Rp8824
tp8825
I01
s(g6
(g10
g95
tp8826
Rp8827
g6
(g10
g314
tp8828
Rp8829
g6
(g10
g1856
tp8830
Rp8831
tp8832
I01
s(g6
(g10
g136
tp8833
Rp8834
g6
(g10
g280
tp8835
Rp8836
g6
(g10
g293
tp8837
Rp8838
tp8839
I01
s(g6
(g10
g136
tp8840
Rp8841
g6
(g10
g269
tp8842
Rp8843
g6
(g10
g311
tp8844
Rp8845
tp8846
I01
s(g6
(g10
g42
tp8847
Rp8848
g6
(g10
g80
tp8849
Rp8850
g6
(g10
g38
tp8851
Rp8852
tp8853
I01
s(g6
(g10
g52
tp8854
Rp8855
g6
(g10
g502
tp8856
Rp8857
g6
(g10
g939
tp8858
Rp8859
tp8860
I01
s(g6
(g10
g136
tp8861
Rp8862
g6
(g10
g557
tp8863
Rp8864
g6
(g10
g363
tp8865
Rp8866
tp8867
I01
s(g6
(g10
g105
tp8868
Rp8869
g6
(g10
g517
tp8870
Rp8871
g6
(g10
g130
tp8872
Rp8873
tp8874
I01
s(g6
(g10
g266
tp8875
Rp8876
g6
(g10
g525
tp8877
Rp8878
g6
(g10
g3342
tp8879
Rp8880
tp8881
I01
s(g6
(g10
g136
tp8882
Rp8883
g6
(g10
g19
tp8884
Rp8885
g6
(g10
g118
tp8886
Rp8887
tp8888
I01
s(g6
(g10
g105
tp8889
Rp8890
g6
(g10
g320
tp8891
Rp8892
g6
(g10
g193
tp8893
Rp8894
tp8895
I01
s(g6
(g10
g13
tp8896
Rp8897
g6
(g10
g311
tp8898
Rp8899
g6
(g10
g2162
tp8900
Rp8901
tp8902
I01
s(g6
(g10
g209
tp8903
Rp8904
g6
(g10
g337
tp8905
Rp8906
g6
(g10
g1048
tp8907
Rp8908
tp8909
I01
s(g6
(g10
g105
tp8910
Rp8911
g6
(g10
g35
tp8912
Rp8913
g6
(g10
g2479
tp8914
Rp8915
tp8916
I01
s(g6
(g10
g13
tp8917
Rp8918
g6
(g10
g215
tp8919
Rp8920
g6
(g10
g28
tp8921
Rp8922
tp8923
I01
s(g6
(g10
g95
tp8924
Rp8925
g6
(g10
g1176
tp8926
Rp8927
g6
(g10
g573
tp8928
Rp8929
tp8930
I01
s(g6
(g10
g13
tp8931
Rp8932
g6
(g10
g331
tp8933
Rp8934
g6
(g10
g2427
tp8935
Rp8936
tp8937
I01
s(g6
(g10
g774
tp8938
Rp8939
g6
(g10
g777
tp8940
Rp8941
g6
(g10
g467
tp8942
Rp8943
tp8944
I01
s(g6
(g10
g266
tp8945
Rp8946
g6
(g10
g52
tp8947
Rp8948
g6
(g10
g658
tp8949
Rp8950
tp8951
I01
s(g6
(g10
g209
tp8952
Rp8953
g6
(g10
g467
tp8954
Rp8955
g6
(g10
g1092
tp8956
Rp8957
tp8958
I01
s(g6
(g10
g136
tp8959
Rp8960
g6
(g10
g624
tp8961
Rp8962
g6
(g10
g1160
tp8963
Rp8964
tp8965
I01
s(g6
(g10
g232
tp8966
Rp8967
g6
(g10
g314
tp8968
Rp8969
g6
(g10
g1374
tp8970
Rp8971
tp8972
I01
s(g6
(g10
g169
tp8973
Rp8974
g6
(g10
g52
tp8975
Rp8976
g6
(g10
g413
tp8977
Rp8978
tp8979
I01
s(g6
(g10
g188
tp8980
Rp8981
g6
(g10
g517
tp8982
Rp8983
g6
(g10
g280
tp8984
Rp8985
tp8986
I01
s(g6
(g10
g188
tp8987
Rp8988
g6
(g10
g48
tp8989
Rp8990
g6
(g10
g624
tp8991
Rp8992
tp8993
I01
s(g6
(g10
g105
tp8994
Rp8995
g6
(g10
g340
tp8996
Rp8997
g6
(g10
g269
tp8998
Rp8999
tp9000
I01
s(g6
(g10
g136
tp9001
Rp9002
g6
(g10
g1831
tp9003
Rp9004
g6
(g10
g2957
tp9005
Rp9006
tp9007
I01
s(g6
(g10
g52
tp9008
Rp9009
g6
(g10
g453
tp9010
Rp9011
g6
(g10
g1168
tp9012
Rp9013
tp9014
I01
s(g6
(g10
g13
tp9015
Rp9016
g6
(g10
g48
tp9017
Rp9018
g6
(g10
g1048
tp9019
Rp9020
tp9021
I01
s(g6
(g10
g209
tp9022
Rp9023
g6
(g10
g476
tp9024
Rp9025
g6
(g10
g551
tp9026
Rp9027
tp9028
I01
s(g6
(g10
g105
tp9029
Rp9030
g6
(g10
g733
tp9031
Rp9032
g6
(g10
g2965
tp9033
Rp9034
tp9035
I01
s(g6
(g10
g774
tp9036
Rp9037
g6
(g10
g410
tp9038
Rp9039
g6
(g10
g105
tp9040
Rp9041
tp9042
I01
s(g6
(g10
g42
tp9043
Rp9044
g6
(g10
g1048
tp9045
Rp9046
g6
(g10
g346
tp9047
Rp9048
tp9049
I01
s(g6
(g10
g52
tp9050
Rp9051
g6
(g10
g393
tp9052
Rp9053
g6
(g10
g1033
tp9054
Rp9055
tp9056
I01
s(g6
(g10
g13
tp9057
Rp9058
g6
(g10
g108
tp9059
Rp9060
g6
(g10
g689
tp9061
Rp9062
tp9063
I01
s(g6
(g10
g52
tp9064
Rp9065
g6
(g10
g833
tp9066
Rp9067
g6
(g10
g1329
tp9068
Rp9069
tp9070
I01
s(g6
(g10
g32
tp9071
Rp9072
g6
(g10
g184
tp9073
Rp9074
g6
(g10
g437
tp9075
Rp9076
tp9077
I01
s(g6
(g10
g52
tp9078
Rp9079
g6
(g10
g393
tp9080
Rp9081
g6
(g10
g3745
tp9082
Rp9083
tp9084
I01
s(g6
(g10
g169
tp9085
Rp9086
g6
(g10
g25
tp9087
Rp9088
g6
(g10
g470
tp9089
Rp9090
tp9091
I01
s(g6
(g10
g3624
tp9092
Rp9093
g6
(g10
g77
tp9094
Rp9095
g6
(g10
g681
tp9096
Rp9097
tp9098
I01
s(g6
(g10
g52
tp9099
Rp9100
g6
(g10
g744
tp9101
Rp9102
g6
(g10
g38
tp9103
Rp9104
tp9105
I01
s(g6
(g10
g77
tp9106
Rp9107
g6
(g10
g16
tp9108
Rp9109
g6
(g10
g777
tp9110
Rp9111
tp9112
I01
s(g6
(g10
g136
tp9113
Rp9114
g6
(g10
g627
tp9115
Rp9116
g6
(g10
g3674
tp9117
Rp9118
tp9119
I01
s(g6
(g10
g13
tp9120
Rp9121
g6
(g10
g467
tp9122
Rp9123
g6
(g10
g551
tp9124
Rp9125
tp9126
I01
s(g6
(g10
g13
tp9127
Rp9128
g6
(g10
g484
tp9129
Rp9130
g6
(g10
g272
tp9131
Rp9132
tp9133
I01
s(g6
(g10
g77
tp9134
Rp9135
g6
(g10
g181
tp9136
Rp9137
g6
(g10
g1575
tp9138
Rp9139
tp9140
I01
s(g6
(g10
g77
tp9141
Rp9142
g6
(g10
g671
tp9143
Rp9144
g6
(g10
g2536
tp9145
Rp9146
tp9147
I01
s(g6
(g10
g52
tp9148
Rp9149
g6
(g10
g105
tp9150
Rp9151
g6
(g10
g65
tp9152
Rp9153
tp9154
I01
s(g6
(g10
g13
tp9155
Rp9156
g6
(g10
g627
tp9157
Rp9158
g6
(g10
g3342
tp9159
Rp9160
tp9161
I01
s(g6
(g10
g95
tp9162
Rp9163
g6
(g10
g71
tp9164
Rp9165
g6
(g10
g3957
tp9166
Rp9167
tp9168
I01
s(g6
(g10
g266
tp9169
Rp9170
g6
(g10
g95
tp9171
Rp9172
g6
(g10
g467
tp9173
Rp9174
tp9175
I01
s(g6
(g10
g95
tp9176
Rp9177
g6
(g10
g573
tp9178
Rp9179
g6
(g10
g777
tp9180
Rp9181
tp9182
I01
s(g6
(g10
g42
tp9183
Rp9184
g6
(g10
g340
tp9185
Rp9186
g6
(g10
g1841
tp9187
Rp9188
tp9189
I01
s(g6
(g10
g105
tp9190
Rp9191
g6
(g10
g215
tp9192
Rp9193
g6
(g10
g2965
tp9194
Rp9195
tp9196
I01
s(g6
(g10
g52
tp9197
Rp9198
g6
(g10
g627
tp9199
Rp9200
g6
(g10
g121
tp9201
Rp9202
tp9203
I01
s(g6
(g10
g105
tp9204
Rp9205
g6
(g10
g98
tp9206
Rp9207
g6
(g10
g2479
tp9208
Rp9209
tp9210
I01
s(g6
(g10
g105
tp9211
Rp9212
g6
(g10
g517
tp9213
Rp9214
g6
(g10
g108
tp9215
Rp9216
tp9217
I01
s(g6
(g10
g105
tp9218
Rp9219
g6
(g10
g337
tp9220
Rp9221
g6
(g10
g245
tp9222
Rp9223
tp9224
I01
s(g6
(g10
g105
tp9225
Rp9226
g6
(g10
g573
tp9227
Rp9228
g6
(g10
g1108
tp9229
Rp9230
tp9231
I01
s(g6
(g10
g52
tp9232
Rp9233
g6
(g10
g671
tp9234
Rp9235
g6
(g10
g453
tp9236
Rp9237
tp9238
I01
s(g6
(g10
g13
tp9239
Rp9240
g6
(g10
g259
tp9241
Rp9242
g6
(g10
g419
tp9243
Rp9244
tp9245
I01
s(g6
(g10
g42
tp9246
Rp9247
g6
(g10
g108
tp9248
Rp9249
g6
(g10
g493
tp9250
Rp9251
tp9252
I01
s(g6
(g10
g105
tp9253
Rp9254
g6
(g10
g1176
tp9255
Rp9256
g6
(g10
g2464
tp9257
Rp9258
tp9259
I01
s(g6
(g10
g266
tp9260
Rp9261
g6
(g10
g885
tp9262
Rp9263
g6
(g10
g19
tp9264
Rp9265
tp9266
I01
s(g6
(g10
g136
tp9267
Rp9268
g6
(g10
g181
tp9269
Rp9270
g6
(g10
g384
tp9271
Rp9272
tp9273
I01
s(g6
(g10
g13
tp9274
Rp9275
g6
(g10
g671
tp9276
Rp9277
g6
(g10
g3094
tp9278
Rp9279
tp9280
I01
s(g6
(g10
g52
tp9281
Rp9282
g6
(g10
g146
tp9283
Rp9284
g6
(g10
g209
tp9285
Rp9286
tp9287
I01
s(g6
(g10
g105
tp9288
Rp9289
g6
(g10
g88
tp9290
Rp9291
g6
(g10
g136
tp9292
Rp9293
tp9294
I01
s(g6
(g10
g52
tp9295
Rp9296
g6
(g10
g311
tp9297
Rp9298
g6
(g10
g215
tp9299
Rp9300
tp9301
I01
s(g6
(g10
g105
tp9302
Rp9303
g6
(g10
g1831
tp9304
Rp9305
g6
(g10
g245
tp9306
Rp9307
tp9308
I01
s(g6
(g10
g105
tp9309
Rp9310
g6
(g10
g302
tp9311
Rp9312
g6
(g10
g1152
tp9313
Rp9314
tp9315
I01
s(g6
(g10
g188
tp9316
Rp9317
g6
(g10
g419
tp9318
Rp9319
g6
(g10
g1293
tp9320
Rp9321
tp9322
I01
s(g6
(g10
g169
tp9323
Rp9324
g6
(g10
g337
tp9325
Rp9326
g6
(g10
g759
tp9327
Rp9328
tp9329
I01
s(g6
(g10
g136
tp9330
Rp9331
g6
(g10
g777
tp9332
Rp9333
g6
(g10
g253
tp9334
Rp9335
tp9336
I01
s(g6
(g10
g136
tp9337
Rp9338
g6
(g10
g293
tp9339
Rp9340
g6
(g10
g924
tp9341
Rp9342
tp9343
I01
s(g6
(g10
g52
tp9344
Rp9345
g6
(g10
g280
tp9346
Rp9347
g6
(g10
g314
tp9348
Rp9349
tp9350
I01
s(g6
(g10
g266
tp9351
Rp9352
g6
(g10
g155
tp9353
Rp9354
g6
(g10
g681
tp9355
Rp9356
tp9357
I01
s(g6
(g10
g13
tp9358
Rp9359
g6
(g10
g98
tp9360
Rp9361
g6
(g10
g551
tp9362
Rp9363
tp9364
I01
s(g6
(g10
g136
tp9365
Rp9366
g6
(g10
g71
tp9367
Rp9368
g6
(g10
g232
tp9369
Rp9370
tp9371
I01
s(g6
(g10
g13
tp9372
Rp9373
g6
(g10
g28
tp9374
Rp9375
g6
(g10
g841
tp9376
Rp9377
tp9378
I01
s(g6
(g10
g52
tp9379
Rp9380
g6
(g10
g35
tp9381
Rp9382
g6
(g10
g3072
tp9383
Rp9384
tp9385
I01
s(g6
(g10
g13
tp9386
Rp9387
g6
(g10
g393
tp9388
Rp9389
g6
(g10
g80
tp9390
Rp9391
tp9392
I01
s(g6
(g10
g95
tp9393
Rp9394
g6
(g10
g557
tp9395
Rp9396
g6
(g10
g759
tp9397
Rp9398
tp9399
I01
s(g6
(g10
g136
tp9400
Rp9401
g6
(g10
g777
tp9402
Rp9403
g6
(g10
g1285
tp9404
Rp9405
tp9406
I01
s(g6
(g10
g169
tp9407
Rp9408
g6
(g10
g62
tp9409
Rp9410
g6
(g10
g774
tp9411
Rp9412
tp9413
I01
s(g6
(g10
g52
tp9414
Rp9415
g6
(g10
g759
tp9416
Rp9417
g6
(g10
g215
tp9418
Rp9419
tp9420
I01
s(g6
(g10
g169
tp9421
Rp9422
g6
(g10
g35
tp9423
Rp9424
g6
(g10
g2221
tp9425
Rp9426
tp9427
I01
s(g6
(g10
g42
tp9428
Rp9429
g6
(g10
g48
tp9430
Rp9431
g6
(g10
g65
tp9432
Rp9433
tp9434
I01
s(g6
(g10
g52
tp9435
Rp9436
g6
(g10
g80
tp9437
Rp9438
g6
(g10
g218
tp9439
Rp9440
tp9441
I01
s(g6
(g10
g774
tp9442
Rp9443
g6
(g10
g624
tp9444
Rp9445
g6
(g10
g6244
tp9446
Rp9447
tp9448
I01
s(g6
(g10
g188
tp9449
Rp9450
g6
(g10
g525
tp9451
Rp9452
g6
(g10
g624
tp9453
Rp9454
tp9455
I01
s(g6
(g10
g13
tp9456
Rp9457
g6
(g10
g80
tp9458
Rp9459
g6
(g10
g502
tp9460
Rp9461
tp9462
I01
s(g6
(g10
g209
tp9463
Rp9464
g6
(g10
g48
tp9465
Rp9466
g6
(g10
g872
tp9467
Rp9468
tp9469
I01
s(g6
(g10
g105
tp9470
Rp9471
g6
(g10
g45
tp9472
Rp9473
g6
(g10
g111
tp9474
Rp9475
tp9476
I01
s(g6
(g10
g232
tp9477
Rp9478
g6
(g10
g19
tp9479
Rp9480
g6
(g10
g2814
tp9481
Rp9482
tp9483
I01
s(g6
(g10
g774
tp9484
Rp9485
g6
(g10
g25
tp9486
Rp9487
g6
(g10
g118
tp9488
Rp9489
tp9490
I01
s(g6
(g10
g52
tp9491
Rp9492
g6
(g10
g777
tp9493
Rp9494
g6
(g10
g65
tp9495
Rp9496
tp9497
I01
s(g6
(g10
g136
tp9498
Rp9499
g6
(g10
g744
tp9500
Rp9501
g6
(g10
g744
tp9502
Rp9503
tp9504
I01
s(g6
(g10
g774
tp9505
Rp9506
g6
(g10
g259
tp9507
Rp9508
g6
(g10
g253
tp9509
Rp9510
tp9511
I01
s(g6
(g10
g13
tp9512
Rp9513
g6
(g10
g155
tp9514
Rp9515
g6
(g10
g833
tp9516
Rp9517
tp9518
I01
s(g6
(g10
g95
tp9519
Rp9520
g6
(g10
g413
tp9521
Rp9522
g6
(g10
g1445
tp9523
Rp9524
tp9525
I01
s(g6
(g10
g232
tp9526
Rp9527
g6
(g10
g1176
tp9528
Rp9529
g6
(g10
g77
tp9530
Rp9531
tp9532
I01
s(g6
(g10
g52
tp9533
Rp9534
g6
(g10
g467
tp9535
Rp9536
g6
(g10
g346
tp9537
Rp9538
tp9539
I01
s(g6
(g10
g136
tp9540
Rp9541
g6
(g10
g127
tp9542
Rp9543
g6
(g10
g4154
tp9544
Rp9545
tp9546
I01
s(g6
(g10
g169
tp9547
Rp9548
g6
(g10
g493
tp9549
Rp9550
g6
(g10
g1011
tp9551
Rp9552
tp9553
I01
s(g6
(g10
g95
tp9554
Rp9555
g6
(g10
g52
tp9556
Rp9557
g6
(g10
g337
tp9558
Rp9559
tp9560
I01
s(g6
(g10
g105
tp9561
Rp9562
g6
(g10
g172
tp9563
Rp9564
g6
(g10
g35
tp9565
Rp9566
tp9567
I01
s(g6
(g10
g52
tp9568
Rp9569
g6
(g10
g269
tp9570
Rp9571
g6
(g10
g218
tp9572
Rp9573
tp9574
I01
s(g6
(g10
g188
tp9575
Rp9576
g6
(g10
g259
tp9577
Rp9578
g6
(g10
g266
tp9579
Rp9580
tp9581
I01
s(g6
(g10
g209
tp9582
Rp9583
g6
(g10
g346
tp9584
Rp9585
g6
(g10
g4169
tp9586
Rp9587
tp9588
I01
s(g6
(g10
g13
tp9589
Rp9590
g6
(g10
g146
tp9591
Rp9592
g6
(g10
g16
tp9593
Rp9594
tp9595
I01
s(g6
(g10
g105
tp9596
Rp9597
g6
(g10
g864
tp9598
Rp9599
g6
(g10
g753
tp9600
Rp9601
tp9602
I01
s(g6
(g10
g169
tp9603
Rp9604
g6
(g10
g314
tp9605
Rp9606
g6
(g10
g3957
tp9607
Rp9608
tp9609
I01
s(g6
(g10
g1374
tp9610
Rp9611
g6
(g10
g13
tp9612
Rp9613
g6
(g10
g232
tp9614
Rp9615
tp9616
I01
s(g6
(g10
g77
tp9617
Rp9618
g6
(g10
g80
tp9619
Rp9620
g6
(g10
g1445
tp9621
Rp9622
tp9623
I01
s(g6
(g10
g833
tp9624
Rp9625
g6
(g10
g3043
tp9626
Rp9627
g6
(g10
g533
tp9628
Rp9629
tp9630
I01
s(g6
(g10
g32
tp9631
Rp9632
g6
(g10
g155
tp9633
Rp9634
g6
(g10
g1003
tp9635
Rp9636
tp9637
I01
s(g6
(g10
g105
tp9638
Rp9639
g6
(g10
g627
tp9640
Rp9641
g6
(g10
g155
tp9642
Rp9643
tp9644
I01
s(g6
(g10
g95
tp9645
Rp9646
g6
(g10
g419
tp9647
Rp9648
g6
(g10
g1011
tp9649
Rp9650
tp9651
I01
s(g6
(g10
g13
tp9652
Rp9653
g6
(g10
g624
tp9654
Rp9655
g6
(g10
g302
tp9656
Rp9657
tp9658
I01
s(g6
(g10
g136
tp9659
Rp9660
g6
(g10
g136
tp9661
Rp9662
g6
(g10
g293
tp9663
Rp9664
tp9665
I01
s(g6
(g10
g52
tp9666
Rp9667
g6
(g10
g320
tp9668
Rp9669
g6
(g10
g2594
tp9670
Rp9671
tp9672
I01
s(g6
(g10
g52
tp9673
Rp9674
g6
(g10
g1176
tp9675
Rp9676
g6
(g10
g376
tp9677
Rp9678
tp9679
I01
s(g6
(g10
g52
tp9680
Rp9681
g6
(g10
g484
tp9682
Rp9683
g6
(g10
g885
tp9684
Rp9685
tp9686
I01
s(g6
(g10
g52
tp9687
Rp9688
g6
(g10
g1831
tp9689
Rp9690
g6
(g10
g2058
tp9691
Rp9692
tp9693
I01
s(g6
(g10
g136
tp9694
Rp9695
g6
(g10
g376
tp9696
Rp9697
g6
(g10
g1160
tp9698
Rp9699
tp9700
I01
s(g6
(g10
g209
tp9701
Rp9702
g6
(g10
g777
tp9703
Rp9704
g6
(g10
g3094
tp9705
Rp9706
tp9707
I01
s(g6
(g10
g95
tp9708
Rp9709
g6
(g10
g733
tp9710
Rp9711
g6
(g10
g2857
tp9712
Rp9713
tp9714
I01
s(g6
(g10
g32
tp9715
Rp9716
g6
(g10
g280
tp9717
Rp9718
g6
(g10
g437
tp9719
Rp9720
tp9721
I01
s(g6
(g10
g13
tp9722
Rp9723
g6
(g10
g136
tp9724
Rp9725
g6
(g10
g2162
tp9726
Rp9727
tp9728
I01
s(g6
(g10
g105
tp9729
Rp9730
g6
(g10
g88
tp9731
Rp9732
g6
(g10
g770
tp9733
Rp9734
tp9735
I01
s(g6
(g10
g136
tp9736
Rp9737
g6
(g10
g533
tp9738
Rp9739
g6
(g10
g2206
tp9740
Rp9741
tp9742
I01
s(g6
(g10
g136
tp9743
Rp9744
g6
(g10
g52
tp9745
Rp9746
g6
(g10
g824
tp9747
Rp9748
tp9749
I01
s(g6
(g10
g32
tp9750
Rp9751
g6
(g10
g525
tp9752
Rp9753
g6
(g10
g453
tp9754
Rp9755
tp9756
I01
s(g6
(g10
g136
tp9757
Rp9758
g6
(g10
g759
tp9759
Rp9760
g6
(g10
g77
tp9761
Rp9762
tp9763
I01
s(g6
(g10
g32
tp9764
Rp9765
g6
(g10
g777
tp9766
Rp9767
g6
(g10
g48
tp9768
Rp9769
tp9770
I01
s(g6
(g10
g52
tp9771
Rp9772
g6
(g10
g331
tp9773
Rp9774
g6
(g10
g611
tp9775
Rp9776
tp9777
I01
s(g6
(g10
g136
tp9778
Rp9779
g6
(g10
g62
tp9780
Rp9781
g6
(g10
g340
tp9782
Rp9783
tp9784
I01
s(g6
(g10
g105
tp9785
Rp9786
g6
(g10
g393
tp9787
Rp9788
g6
(g10
g1340
tp9789
Rp9790
tp9791
I01
s(g6
(g10
g105
tp9792
Rp9793
g6
(g10
g127
tp9794
Rp9795
g6
(g10
g1340
tp9796
Rp9797
tp9798
I01
s(g6
(g10
g136
tp9799
Rp9800
g6
(g10
g35
tp9801
Rp9802
g6
(g10
g393
tp9803
Rp9804
tp9805
I01
s(g6
(g10
g136
tp9806
Rp9807
g6
(g10
g1063
tp9808
Rp9809
g6
(g10
g393
tp9810
Rp9811
tp9812
I01
s(g6
(g10
g143
tp9813
Rp9814
g6
(g10
g1048
tp9815
Rp9816
g6
(g10
g6981
tp9817
Rp9818
tp9819
I01
s(g6
(g10
g52
tp9820
Rp9821
g6
(g10
g410
tp9822
Rp9823
g6
(g10
g560
tp9824
Rp9825
tp9826
I01
s(g6
(g10
g188
tp9827
Rp9828
g6
(g10
g533
tp9829
Rp9830
g6
(g10
g3043
tp9831
Rp9832
tp9833
I01
s(g6
(g10
g95
tp9834
Rp9835
g6
(g10
g830
tp9836
Rp9837
g6
(g10
g337
tp9838
Rp9839
tp9840
I01
s(g6
(g10
g13
tp9841
Rp9842
g6
(g10
g16
tp9843
Rp9844
g6
(g10
g42
tp9845
Rp9846
tp9847
I01
s(g6
(g10
g95
tp9848
Rp9849
g6
(g10
g13
tp9850
Rp9851
g6
(g10
g476
tp9852
Rp9853
tp9854
I01
s(g6
(g10
g95
tp9855
Rp9856
g6
(g10
g28
tp9857
Rp9858
g6
(g10
g759
tp9859
Rp9860
tp9861
I01
s(g6
(g10
g13
tp9862
Rp9863
g6
(g10
g293
tp9864
Rp9865
g6
(g10
g658
tp9866
Rp9867
tp9868
I01
s(g6
(g10
g136
tp9869
Rp9870
g6
(g10
g1831
tp9871
Rp9872
g6
(g10
g340
tp9873
Rp9874
tp9875
I01
s(g6
(g10
g52
tp9876
Rp9877
g6
(g10
g885
tp9878
Rp9879
g6
(g10
g314
tp9880
Rp9881
tp9882
I01
s(g6
(g10
g209
tp9883
Rp9884
g6
(g10
g777
tp9885
Rp9886
g6
(g10
g3342
tp9887
Rp9888
tp9889
I01
s(g6
(g10
g232
tp9890
Rp9891
g6
(g10
g35
tp9892
Rp9893
g6
(g10
g323
tp9894
Rp9895
tp9896
I01
s(g6
(g10
g42
tp9897
Rp9898
g6
(g10
g331
tp9899
Rp9900
g6
(g10
g2328
tp9901
Rp9902
tp9903
I01
s(g6
(g10
g13
tp9904
Rp9905
g6
(g10
g573
tp9906
Rp9907
g6
(g10
g4169
tp9908
Rp9909
tp9910
I01
s(g6
(g10
g95
tp9911
Rp9912
g6
(g10
g744
tp9913
Rp9914
g6
(g10
g2857
tp9915
Rp9916
tp9917
I01
s(g6
(g10
g105
tp9918
Rp9919
g6
(g10
g215
tp9920
Rp9921
g6
(g10
g6981
tp9922
Rp9923
tp9924
I01
s(g6
(g10
g105
tp9925
Rp9926
g6
(g10
g25
tp9927
Rp9928
g6
(g10
g2479
tp9929
Rp9930
tp9931
I01
s(g6
(g10
g13
tp9932
Rp9933
g6
(g10
g1063
tp9934
Rp9935
g6
(g10
g1092
tp9936
Rp9937
tp9938
I01
s(g6
(g10
g266
tp9939
Rp9940
g6
(g10
g453
tp9941
Rp9942
g6
(g10
g1611
tp9943
Rp9944
tp9945
I01
s(g6
(g10
g232
tp9946
Rp9947
g6
(g10
g1063
tp9948
Rp9949
g6
(g10
g311
tp9950
Rp9951
tp9952
I01
s(g6
(g10
g188
tp9953
Rp9954
g6
(g10
g830
tp9955
Rp9956
g6
(g10
g1108
tp9957
Rp9958
tp9959
I01
s(g6
(g10
g52
tp9960
Rp9961
g6
(g10
g269
tp9962
Rp9963
g6
(g10
g38
tp9964
Rp9965
tp9966
I01
s(g6
(g10
g13
tp9967
Rp9968
g6
(g10
g340
tp9969
Rp9970
g6
(g10
g671
tp9971
Rp9972
tp9973
I01
s(g6
(g10
g52
tp9974
Rp9975
g6
(g10
g293
tp9976
Rp9977
g6
(g10
g25
tp9978
Rp9979
tp9980
I01
s(g6
(g10
g232
tp9981
Rp9982
g6
(g10
g98
tp9983
Rp9984
g6
(g10
g716
tp9985
Rp9986
tp9987
I01
s(g6
(g10
g136
tp9988
Rp9989
g6
(g10
g181
tp9990
Rp9991
g6
(g10
g293
tp9992
Rp9993
tp9994
I01
s(g6
(g10
g13
tp9995
Rp9996
g6
(g10
g384
tp9997
Rp9998
g6
(g10
g3342
tp9999
Rp10000
tp10001
I01
s(g6
(g10
g13
tp10002
Rp10003
g6
(g10
g16
tp10004
Rp10005
g6
(g10
g62
tp10006
Rp10007
tp10008
I01
s(g6
(g10
g32
tp10009
Rp10010
g6
(g10
g525
tp10011
Rp10012
g6
(g10
g121
tp10013
Rp10014
tp10015
I01
s(g6
(g10
g13
tp10016
Rp10017
g6
(g10
g259
tp10018
Rp10019
g6
(g10
g111
tp10020
Rp10021
tp10022
I01
s(g6
(g10
g32
tp10023
Rp10024
g6
(g10
g105
tp10025
Rp10026
g6
(g10
g493
tp10027
Rp10028
tp10029
I01
s(g6
(g10
g52
tp10030
Rp10031
g6
(g10
g19
tp10032
Rp10033
g6
(g10
g91
tp10034
Rp10035
tp10036
I01
s(g6
(g10
g169
tp10037
Rp10038
g6
(g10
g13
tp10039
Rp10040
g6
(g10
g88
tp10041
Rp10042
tp10043
I01
s(g6
(g10
g209
tp10044
Rp10045
g6
(g10
g35
tp10046
Rp10047
g6
(g10
g28
tp10048
Rp10049
tp10050
I01
s(g6
(g10
g42
tp10051
Rp10052
g6
(g10
g184
tp10053
Rp10054
g6
(g10
g1033
tp10055
Rp10056
tp10057
I01
s(g6
(g10
g52
tp10058
Rp10059
g6
(g10
g885
tp10060
Rp10061
g6
(g10
g3745
tp10062
Rp10063
tp10064
I01
s(g6
(g10
g105
tp10065
Rp10066
g6
(g10
g52
tp10067
Rp10068
g6
(g10
g35
tp10069
Rp10070
tp10071
I01
s(g6
(g10
g188
tp10072
Rp10073
g6
(g10
g777
tp10074
Rp10075
g6
(g10
g387
tp10076
Rp10077
tp10078
I01
s(g6
(g10
g52
tp10079
Rp10080
g6
(g10
g340
tp10081
Rp10082
g6
(g10
g218
tp10083
Rp10084
tp10085
I01
s(g6
(g10
g13
tp10086
Rp10087
g6
(g10
g346
tp10088
Rp10089
g6
(g10
g19
tp10090
Rp10091
tp10092
I01
s(g6
(g10
g136
tp10093
Rp10094
g6
(g10
g744
tp10095
Rp10096
g6
(g10
g311
tp10097
Rp10098
tp10099
I01
s(g6
(g10
g42
tp10100
Rp10101
g6
(g10
g95
tp10102
Rp10103
g6
(g10
g2058
tp10104
Rp10105
tp10106
I01
s(g6
(g10
g105
tp10107
Rp10108
g6
(g10
g105
tp10109
Rp10110
g6
(g10
g155
tp10111
Rp10112
tp10113
I01
s(g6
(g10
g105
tp10114
Rp10115
g6
(g10
g525
tp10116
Rp10117
g6
(g10
g245
tp10118
Rp10119
tp10120
I01
s(g6
(g10
g95
tp10121
Rp10122
g6
(g10
g864
tp10123
Rp10124
g6
(g10
g139
tp10125
Rp10126
tp10127
I01
s(g6
(g10
g169
tp10128
Rp10129
g6
(g10
g376
tp10130
Rp10131
g6
(g10
g98
tp10132
Rp10133
tp10134
I01
s(g6
(g10
g42
tp10135
Rp10136
g6
(g10
g1063
tp10137
Rp10138
g6
(g10
g218
tp10139
Rp10140
tp10141
I01
s(g6
(g10
g105
tp10142
Rp10143
g6
(g10
g830
tp10144
Rp10145
g6
(g10
g35
tp10146
Rp10147
tp10148
I01
s(g6
(g10
g169
tp10149
Rp10150
g6
(g10
g184
tp10151
Rp10152
g6
(g10
g1711
tp10153
Rp10154
tp10155
I01
s(g6
(g10
g143
tp10156
Rp10157
g6
(g10
g671
tp10158
Rp10159
g6
(g10
g2965
tp10160
Rp10161
tp10162
I01
s(g6
(g10
g32
tp10163
Rp10164
g6
(g10
g28
tp10165
Rp10166
g6
(g10
g48
tp10167
Rp10168
tp10169
I01
s(g6
(g10
g52
tp10170
Rp10171
g6
(g10
g1176
tp10172
Rp10173
g6
(g10
g885
tp10174
Rp10175
tp10176
I01
s(g6
(g10
g52
tp10177
Rp10178
g6
(g10
g624
tp10179
Rp10180
g6
(g10
g2058
tp10181
Rp10182
tp10183
I01
s(g6
(g10
g13
tp10184
Rp10185
g6
(g10
g393
tp10186
Rp10187
g6
(g10
g16
tp10188
Rp10189
tp10190
I01
s(g6
(g10
g95
tp10191
Rp10192
g6
(g10
g476
tp10193
Rp10194
g6
(g10
g101
tp10195
Rp10196
tp10197
I01
s(g6
(g10
g95
tp10198
Rp10199
g6
(g10
g340
tp10200
Rp10201
g6
(g10
g2857
tp10202
Rp10203
tp10204
I01
s(g6
(g10
g13
tp10205
Rp10206
g6
(g10
g493
tp10207
Rp10208
g6
(g10
g1611
tp10209
Rp10210
tp10211
I01
s(g6
(g10
g13
tp10212
Rp10213
g6
(g10
g346
tp10214
Rp10215
g6
(g10
g902
tp10216
Rp10217
tp10218
I01
s(g6
(g10
g169
tp10219
Rp10220
g6
(g10
g331
tp10221
Rp10222
g6
(g10
g262
tp10223
Rp10224
tp10225
I01
s(g6
(g10
g95
tp10226
Rp10227
g6
(g10
g302
tp10228
Rp10229
g6
(g10
g262
tp10230
Rp10231
tp10232
I01
s(g6
(g10
g77
tp10233
Rp10234
g6
(g10
g419
tp10235
Rp10236
g6
(g10
g1711
tp10237
Rp10238
tp10239
I01
s(g6
(g10
g13
tp10240
Rp10241
g6
(g10
g716
tp10242
Rp10243
g6
(g10
g681
tp10244
Rp10245
tp10246
I01
s(g6
(g10
g95
tp10247
Rp10248
g6
(g10
g16
tp10249
Rp10250
g6
(g10
g1575
tp10251
Rp10252
tp10253
I01
s(g6
(g10
S'\xf8'
p10254
tp10255
Rp10256
g6
(g10
g209
tp10257
Rp10258
g6
(g10
g1160
tp10259
Rp10260
tp10261
I01
s(g6
(g10
g136
tp10262
Rp10263
g6
(g10
g80
tp10264
Rp10265
g6
(g10
g744
tp10266
Rp10267
tp10268
I01
s(g6
(g10
g232
tp10269
Rp10270
g6
(g10
g19
tp10271
Rp10272
g6
(g10
g496
tp10273
Rp10274
tp10275
I01
s(g6
(g10
g136
tp10276
Rp10277
g6
(g10
g410
tp10278
Rp10279
g6
(g10
g824
tp10280
Rp10281
tp10282
I01
s(g6
(g10
g169
tp10283
Rp10284
g6
(g10
g172
tp10285
Rp10286
g6
(g10
g127
tp10287
Rp10288
tp10289
I01
s(g6
(g10
g232
tp10290
Rp10291
g6
(g10
g557
tp10292
Rp10293
g6
(g10
g1123
tp10294
Rp10295
tp10296
I01
s(g6
(g10
g136
tp10297
Rp10298
g6
(g10
g259
tp10299
Rp10300
g6
(g10
g105
tp10301
Rp10302
tp10303
I01
s(g6
(g10
g52
tp10304
Rp10305
g6
(g10
g337
tp10306
Rp10307
g6
(g10
g1790
tp10308
Rp10309
tp10310
I01
s(g6
(g10
g136
tp10311
Rp10312
g6
(g10
g419
tp10313
Rp10314
g6
(g10
g77
tp10315
Rp10316
tp10317
I01
s(g6
(g10
g136
tp10318
Rp10319
g6
(g10
g624
tp10320
Rp10321
g6
(g10
g802
tp10322
Rp10323
tp10324
I01
s(g6
(g10
g13
tp10325
Rp10326
g6
(g10
g517
tp10327
Rp10328
g6
(g10
g16
tp10329
Rp10330
tp10331
I01
s(g6
(g10
g774
tp10332
Rp10333
g6
(g10
g671
tp10334
Rp10335
g6
(g10
g744
tp10336
Rp10337
tp10338
I01
s(g6
(g10
g136
tp10339
Rp10340
g6
(g10
g136
tp10341
Rp10342
g6
(g10
g384
tp10343
Rp10344
tp10345
I01
s(g6
(g10
g77
tp10346
Rp10347
g6
(g10
g13
tp10348
Rp10349
g6
(g10
g2175
tp10350
Rp10351
tp10352
I01
s(g6
(g10
g95
tp10353
Rp10354
g6
(g10
g1048
tp10355
Rp10356
g6
(g10
g101
tp10357
Rp10358
tp10359
I01
s(g6
(g10
g13
tp10360
Rp10361
g6
(g10
g759
tp10362
Rp10363
g6
(g10
g5634
tp10364
Rp10365
tp10366
I01
s(g6
(g10
g13
tp10367
Rp10368
g6
(g10
g215
tp10369
Rp10370
g6
(g10
g1092
tp10371
Rp10372
tp10373
I01
s(g6
(g10
g32
tp10374
Rp10375
g6
(g10
g280
tp10376
Rp10377
g6
(g10
g209
tp10378
Rp10379
tp10380
I01
s(g6
(g10
g52
tp10381
Rp10382
g6
(g10
g502
tp10383
Rp10384
g6
(g10
g885
tp10385
Rp10386
tp10387
I01
s(g6
(g10
g266
tp10388
Rp10389
g6
(g10
g493
tp10390
Rp10391
g6
(g10
g1481
tp10392
Rp10393
tp10394
I01
s(g6
(g10
g136
tp10395
Rp10396
g6
(g10
g105
tp10397
Rp10398
g6
(g10
g1249
tp10399
Rp10400
tp10401
I01
s(g6
(g10
g266
tp10402
Rp10403
g6
(g10
g314
tp10404
Rp10405
g6
(g10
g4169
tp10406
Rp10407
tp10408
I01
s(g6
(g10
g105
tp10409
Rp10410
g6
(g10
g28
tp10411
Rp10412
g6
(g10
g155
tp10413
Rp10414
tp10415
I01
s(g6
(g10
g136
tp10416
Rp10417
g6
(g10
g1176
tp10418
Rp10419
g6
(g10
g2084
tp10420
Rp10421
tp10422
I01
s(g6
(g10
g13
tp10423
Rp10424
g6
(g10
g830
tp10425
Rp10426
g6
(g10
g158
tp10427
Rp10428
tp10429
I01
s(g6
(g10
g169
tp10430
Rp10431
g6
(g10
g88
tp10432
Rp10433
g6
(g10
g88
tp10434
Rp10435
tp10436
I01
s(g6
(g10
g95
tp10437
Rp10438
g6
(g10
g88
tp10439
Rp10440
g6
(g10
g476
tp10441
Rp10442
tp10443
I01
s(g6
(g10
g143
tp10444
Rp10445
g6
(g10
g45
tp10446
Rp10447
g6
(g10
g2965
tp10448
Rp10449
tp10450
I01
s(g6
(g10
g105
tp10451
Rp10452
g6
(g10
g384
tp10453
Rp10454
g6
(g10
g624
tp10455
Rp10456
tp10457
I01
s(g6
(g10
g52
tp10458
Rp10459
g6
(g10
g1176
tp10460
Rp10461
g6
(g10
g939
tp10462
Rp10463
tp10464
I01
s(g6
(g10
g143
tp10465
Rp10466
g6
(g10
g172
tp10467
Rp10468
g6
(g10
g1719
tp10469
Rp10470
tp10471
I01
s(g6
(g10
g13
tp10472
Rp10473
g6
(g10
g384
tp10474
Rp10475
g6
(g10
g872
tp10476
Rp10477
tp10478
I01
s(g6
(g10
g169
tp10479
Rp10480
g6
(g10
g136
tp10481
Rp10482
g6
(g10
g396
tp10483
Rp10484
tp10485
I01
s(g6
(g10
g136
tp10486
Rp10487
g6
(g10
g28
tp10488
Rp10489
g6
(g10
g253
tp10490
Rp10491
tp10492
I01
s(g6
(g10
g52
tp10493
Rp10494
g6
(g10
g346
tp10495
Rp10496
g6
(g10
g2558
tp10497
Rp10498
tp10499
I01
s(g6
(g10
g52
tp10500
Rp10501
g6
(g10
g331
tp10502
Rp10503
g6
(g10
g1176
tp10504
Rp10505
tp10506
I01
s(g6
(g10
g77
tp10507
Rp10508
g6
(g10
g16
tp10509
Rp10510
g6
(g10
g127
tp10511
Rp10512
tp10513
I01
s(g6
(g10
g52
tp10514
Rp10515
g6
(g10
g48
tp10516
Rp10517
g6
(g10
g635
tp10518
Rp10519
tp10520
I01
s(g6
(g10
g169
tp10521
Rp10522
g6
(g10
g13
tp10523
Rp10524
g6
(g10
g1011
tp10525
Rp10526
tp10527
I01
s(g6
(g10
g32
tp10528
Rp10529
g6
(g10
g52
tp10530
Rp10531
g6
(g10
g25
tp10532
Rp10533
tp10534
I01
s(g6
(g10
g32
tp10535
Rp10536
g6
(g10
g13
tp10537
Rp10538
g6
(g10
g215
tp10539
Rp10540
tp10541
I01
s(g6
(g10
g232
tp10542
Rp10543
g6
(g10
g155
tp10544
Rp10545
g6
(g10
g924
tp10546
Rp10547
tp10548
I01
s(g6
(g10
g95
tp10549
Rp10550
g6
(g10
g88
tp10551
Rp10552
g6
(g10
g1445
tp10553
Rp10554
tp10555
I01
s(g6
(g10
g42
tp10556
Rp10557
g6
(g10
g337
tp10558
Rp10559
g6
(g10
g2058
tp10560
Rp10561
tp10562
I01
s(g6
(g10
g266
tp10563
Rp10564
g6
(g10
g1831
tp10565
Rp10566
g6
(g10
g872
tp10567
Rp10568
tp10569
I01
s(g6
(g10
g42
tp10570
Rp10571
g6
(g10
g484
tp10572
Rp10573
g6
(g10
g376
tp10574
Rp10575
tp10576
I01
s(g6
(g10
g105
tp10577
Rp10578
g6
(g10
g155
tp10579
Rp10580
g6
(g10
g35
tp10581
Rp10582
tp10583
I01
s(g6
(g10
g136
tp10584
Rp10585
g6
(g10
g502
tp10586
Rp10587
g6
(g10
g2084
tp10588
Rp10589
tp10590
I01
s(g6
(g10
g13
tp10591
Rp10592
g6
(g10
g830
tp10593
Rp10594
g6
(g10
g4169
tp10595
Rp10596
tp10597
I01
s(g6
(g10
g136
tp10598
Rp10599
g6
(g10
g19
tp10600
Rp10601
g6
(g10
g3816
tp10602
Rp10603
tp10604
I01
s(g6
(g10
g52
tp10605
Rp10606
g6
(g10
g302
tp10607
Rp10608
g6
(g10
g1003
tp10609
Rp10610
tp10611
I01
s(g6
(g10
g105
tp10612
Rp10613
g6
(g10
g28
tp10614
Rp10615
g6
(g10
g320
tp10616
Rp10617
tp10618
I01
s(g6
(g10
g32
tp10619
Rp10620
g6
(g10
g136
tp10621
Rp10622
g6
(g10
g1934
tp10623
Rp10624
tp10625
I01
s(g6
(g10
g780
tp10626
Rp10627
g6
(g10
g2965
tp10628
Rp10629
g6
(g10
g2162
tp10630
Rp10631
tp10632
I01
s(g6
(g10
g188
tp10633
Rp10634
g6
(g10
g28
tp10635
Rp10636
g6
(g10
g624
tp10637
Rp10638
tp10639
I01
s(g6
(g10
g95
tp10640
Rp10641
g6
(g10
g502
tp10642
Rp10643
g6
(g10
g573
tp10644
Rp10645
tp10646
I01
s(g6
(g10
g3624
tp10647
Rp10648
g6
(g10
g624
tp10649
Rp10650
g6
(g10
g1100
tp10651
Rp10652
tp10653
I01
s(g6
(g10
g774
tp10654
Rp10655
g6
(g10
g413
tp10656
Rp10657
g6
(g10
g77
tp10658
Rp10659
tp10660
I01
s(g6
(g10
g232
tp10661
Rp10662
g6
(g10
g25
tp10663
Rp10664
g6
(g10
g744
tp10665
Rp10666
tp10667
I01
s(g6
(g10
g188
tp10668
Rp10669
g6
(g10
g108
tp10670
Rp10671
g6
(g10
g1654
tp10672
Rp10673
tp10674
I01
s(g6
(g10
g52
tp10675
Rp10676
g6
(g10
g484
tp10677
Rp10678
g6
(g10
g1841
tp10679
Rp10680
tp10681
I01
s(g6
(g10
g136
tp10682
Rp10683
g6
(g10
g13
tp10684
Rp10685
g6
(g10
g2814
tp10686
Rp10687
tp10688
I01
s(g6
(g10
g13
tp10689
Rp10690
g6
(g10
g1831
tp10691
Rp10692
g6
(g10
g302
tp10693
Rp10694
tp10695
I01
s(g6
(g10
g209
tp10696
Rp10697
g6
(g10
g146
tp10698
Rp10699
g6
(g10
g19
tp10700
Rp10701
tp10702
I01
s(g6
(g10
g105
tp10703
Rp10704
g6
(g10
g885
tp10705
Rp10706
g6
(g10
g1340
tp10707
Rp10708
tp10709
I01
s(g6
(g10
g136
tp10710
Rp10711
g6
(g10
g830
tp10712
Rp10713
g6
(g10
g824
tp10714
Rp10715
tp10716
I01
s(g6
(g10
g143
tp10717
Rp10718
g6
(g10
g453
tp10719
Rp10720
g6
(g10
g3043
tp10721
Rp10722
tp10723
I01
s(g6
(g10
g52
tp10724
Rp10725
g6
(g10
g280
tp10726
Rp10727
g6
(g10
g445
tp10728
Rp10729
tp10730
I01
s(g6
(g10
g188
tp10731
Rp10732
g6
(g10
g16
tp10733
Rp10734
g6
(g10
g410
tp10735
Rp10736
tp10737
I01
s(g6
(g10
g77
tp10738
Rp10739
g6
(g10
g19
tp10740
Rp10741
g6
(g10
g1011
tp10742
Rp10743
tp10744
I01
s(g6
(g10
g266
tp10745
Rp10746
g6
(g10
g733
tp10747
Rp10748
g6
(g10
g536
tp10749
Rp10750
tp10751
I01
s(g6
(g10
g105
tp10752
Rp10753
g6
(g10
g184
tp10754
Rp10755
g6
(g10
g1293
tp10756
Rp10757
tp10758
I01
s(g6
(g10
g13
tp10759
Rp10760
g6
(g10
g671
tp10761
Rp10762
g6
(g10
g689
tp10763
Rp10764
tp10765
I01
s(g6
(g10
g188
tp10766
Rp10767
g6
(g10
g467
tp10768
Rp10769
g6
(g10
g2965
tp10770
Rp10771
tp10772
I01
s(g6
(g10
g143
tp10773
Rp10774
g6
(g10
g311
tp10775
Rp10776
g6
(g10
g108
tp10777
Rp10778
tp10779
I01
s(g6
(g10
g52
tp10780
Rp10781
g6
(g10
g467
tp10782
Rp10783
g6
(g10
g48
tp10784
Rp10785
tp10786
I01
s(g6
(g10
g136
tp10787
Rp10788
g6
(g10
g410
tp10789
Rp10790
g6
(g10
g363
tp10791
Rp10792
tp10793
I01
s(g6
(g10
g105
tp10794
Rp10795
g6
(g10
g410
tp10796
Rp10797
g6
(g10
g849
tp10798
Rp10799
tp10800
I01
s(g6
(g10
g13
tp10801
Rp10802
g6
(g10
g331
tp10803
Rp10804
g6
(g10
g681
tp10805
Rp10806
tp10807
I01
s(g6
(g10
g105
tp10808
Rp10809
g6
(g10
g181
tp10810
Rp10811
g6
(g10
g1340
tp10812
Rp10813
tp10814
I01
s(g6
(g10
g13
tp10815
Rp10816
g6
(g10
g533
tp10817
Rp10818
g6
(g10
g272
tp10819
Rp10820
tp10821
I01
s(g6
(g10
g52
tp10822
Rp10823
g6
(g10
g410
tp10824
Rp10825
g6
(g10
g296
tp10826
Rp10827
tp10828
I01
s(g6
(g10
g209
tp10829
Rp10830
g6
(g10
g525
tp10831
Rp10832
g6
(g10
g841
tp10833
Rp10834
tp10835
I01
s(g6
(g10
g95
tp10836
Rp10837
g6
(g10
g777
tp10838
Rp10839
g6
(g10
g643
tp10840
Rp10841
tp10842
I01
s(g6
(g10
g143
tp10843
Rp10844
g6
(g10
g346
tp10845
Rp10846
g6
(g10
g1108
tp10847
Rp10848
tp10849
I01
s(g6
(g10
g52
tp10850
Rp10851
g6
(g10
g624
tp10852
Rp10853
g6
(g10
g635
tp10854
Rp10855
tp10856
I01
s(g6
(g10
g95
tp10857
Rp10858
g6
(g10
g413
tp10859
Rp10860
g6
(g10
g1213
tp10861
Rp10862
tp10863
I01
s(g6
(g10
g95
tp10864
Rp10865
g6
(g10
g410
tp10866
Rp10867
g6
(g10
g127
tp10868
Rp10869
tp10870
I01
s(g6
(g10
g824
tp10871
Rp10872
g6
(g10
g643
tp10873
Rp10874
g6
(g10
g118
tp10875
Rp10876
tp10877
I01
s(g6
(g10
g774
tp10878
Rp10879
g6
(g10
g1063
tp10880
Rp10881
g6
(g10
g3816
tp10882
Rp10883
tp10884
I01
s(g6
(g10
g95
tp10885
Rp10886
g6
(g10
g573
tp10887
Rp10888
g6
(g10
g127
tp10889
Rp10890
tp10891
I01
s(g6
(g10
g42
tp10892
Rp10893
g6
(g10
g393
tp10894
Rp10895
g6
(g10
g209
tp10896
Rp10897
tp10898
I01
s(g6
(g10
g143
tp10899
Rp10900
g6
(g10
g393
tp10901
Rp10902
g6
(g10
g35
tp10903
Rp10904
tp10905
I01
s(g6
(g10
g232
tp10906
Rp10907
g6
(g10
g525
tp10908
Rp10909
g6
(g10
g1249
tp10910
Rp10911
tp10912
I01
s(g6
(g10
g52
tp10913
Rp10914
g6
(g10
g35
tp10915
Rp10916
g6
(g10
g493
tp10917
Rp10918
tp10919
I01
s(g6
(g10
g13
tp10920
Rp10921
g6
(g10
g35
tp10922
Rp10923
g6
(g10
g1343
tp10924
Rp10925
tp10926
I01
s(g6
(g10
g136
tp10927
Rp10928
g6
(g10
g1176
tp10929
Rp10930
g6
(g10
g496
tp10931
Rp10932
tp10933
I01
s(g6
(g10
g105
tp10934
Rp10935
g6
(g10
g296
tp10936
Rp10937
g6
(g10
g1108
tp10938
Rp10939
tp10940
I01
s(g6
(g10
g105
tp10941
Rp10942
g6
(g10
g45
tp10943
Rp10944
g6
(g10
g387
tp10945
Rp10946
tp10947
I01
s(g6
(g10
g209
tp10948
Rp10949
g6
(g10
g759
tp10950
Rp10951
g6
(g10
g80
tp10952
Rp10953
tp10954
I01
s(g6
(g10
g136
tp10955
Rp10956
g6
(g10
g716
tp10957
Rp10958
g6
(g10
g3574
tp10959
Rp10960
tp10961
I01
s(g6
(g10
g136
tp10962
Rp10963
g6
(g10
g101
tp10964
Rp10965
g6
(g10
g146
tp10966
Rp10967
tp10968
I01
s(g6
(g10
g232
tp10969
Rp10970
g6
(g10
g671
tp10971
Rp10972
g6
(g10
g716
tp10973
Rp10974
tp10975
I01
stp10976
b.